TN:
SF:/path/to/asterix/src/asterix/AsterixData.cpp
FN:29,30,_ZN11AsterixDataC2Ev
FN:32,39,_ZN11AsterixDataD0Ev
FN:32,39,_ZN11AsterixDataD2Ev
FN:44,60,_ZN11AsterixData7getTextERNSt7__cxx1112basic_stringIcSt11char_traitsIcESaIcEEEj
FNDA:0,_ZN11AsterixDataC2Ev
FNDA:0,_ZN11AsterixDataD0Ev
FNDA:0,_ZN11AsterixDataD2Ev
FNDA:0,_ZN11AsterixData7getTextERNSt7__cxx1112basic_stringIcSt11char_traitsIcESaIcEEEj
FNF:4
FNH:0
DA:29,0
DA:30,0
DA:32,0
DA:34,0
DA:35,0
DA:36,0
DA:37,0
DA:39,0
DA:44,0
DA:47,0
DA:48,0
DA:49,0
DA:50,0
DA:51,0
DA:52,0
DA:53,0
DA:54,0
DA:56,0
DA:59,0
LF:19
LH:0
end_of_record
TN:
SF:/path/to/asterix/src/asterix/AsterixDefinition.cpp
FN:27,31,_ZN17AsterixDefinitionC2Ev
FN:33,39,_ZN17AsterixDefinitionD0Ev
FN:33,39,_ZN17AsterixDefinitionD2Ev
FN:41,50,_ZN17AsterixDefinition11getCategoryEi
FN:52,59,_ZN17AsterixDefinition11setCategoryEP8Category
FN:61,63,_ZN17AsterixDefinition15CategoryDefinedEi
FN:65,75,_ZN17AsterixDefinition16printDescriptorsB5cxx11Ev
FN:77,82,_ZN17AsterixDefinition13filterOutItemEiNSt7__cxx1112basic_stringIcSt11char_traitsIcESaIcEEEPKc
FN:84,89,_ZN17AsterixDefinition10isFilteredEiNSt7__cxx1112basic_stringIcSt11char_traitsIcESaIcEEEPKc
FN:91,99,_ZN17AsterixDefinition14getDescriptionEiPKcS1_S1_
FNDA:0,_ZN17AsterixDefinitionC2Ev
FNDA:0,_ZN17AsterixDefinitionD0Ev
FNDA:0,_ZN17AsterixDefinitionD2Ev
FNDA:0,_ZN17AsterixDefinition11getCategoryEi
FNDA:0,_ZN17AsterixDefinition11setCategoryEP8Category
FNDA:0,_ZN17AsterixDefinition15CategoryDefinedEi
FNDA:0,_ZN17AsterixDefinition16printDescriptorsB5cxx11Ev
FNDA:0,_ZN17AsterixDefinition13filterOutItemEiNSt7__cxx1112basic_stringIcSt11char_traitsIcESaIcEEEPKc
FNDA:0,_ZN17AsterixDefinition10isFilteredEiNSt7__cxx1112basic_stringIcSt11char_traitsIcESaIcEEEPKc
FNDA:0,_ZN17AsterixDefinition14getDescriptionEiPKcS1_S1_
FNF:10
FNH:0
DA:27,0
DA:28,0
DA:29,0
DA:31,0
DA:33,0
DA:34,0
DA:35,0
DA:36,0
DA:39,0
DA:41,0
DA:42,0
DA:43,0
DA:45,0
DA:46,0
DA:49,0
DA:52,0
DA:53,0
DA:54,0
DA:55,0
DA:57,0
DA:59,0
DA:61,0
DA:62,0
DA:65,0
DA:66,0
DA:67,0
DA:69,0
DA:70,0
DA:71,0
DA:74,0
DA:75,0
DA:77,0
DA:78,0
DA:79,0
DA:81,0
DA:84,0
DA:85,0
DA:86,0
DA:88,0
DA:91,0
DA:93,0
DA:94,0
DA:95,0
DA:96,0
DA:98,0
LF:45
LH:0
end_of_record
TN:
SF:/path/to/asterix/src/asterix/Category.cpp
FN:133,149,_ZN8Category16printDescriptorsB5cxx11Ev
FN:151,165,_ZN8Category13filterOutItemENSt7__cxx1112basic_stringIcSt11char_traitsIcESaIcEEEPKc
FN:167,179,_ZN8Category10isFilteredENSt7__cxx1112basic_stringIcSt11char_traitsIcESaIcEEEPKc
FN:26,28,_ZN8CategoryC2Ei
FN:30,44,_ZN8CategoryD0Ev
FN:30,44,_ZN8CategoryD2Ev
FN:46,62,_ZN8Category22getDataItemDescriptionENSt7__cxx1112basic_stringIcSt11char_traitsIcESaIcEEE
FN:64,79,_ZN8Category14getDescriptionEPKcS1_S1_
FN:81,85,_ZN8Category6newUAPEv
FN:87,131,_ZN8Category6getUAPEPKhm
FNDA:0,_ZN8Category16printDescriptorsB5cxx11Ev
FNDA:0,_ZN8Category13filterOutItemENSt7__cxx1112basic_stringIcSt11char_traitsIcESaIcEEEPKc
FNDA:0,_ZN8Category10isFilteredENSt7__cxx1112basic_stringIcSt11char_traitsIcESaIcEEEPKc
FNDA:0,_ZN8CategoryC2Ei
FNDA:0,_ZN8CategoryD0Ev
FNDA:0,_ZN8CategoryD2Ev
FNDA:0,_ZN8Category22getDataItemDescriptionENSt7__cxx1112basic_stringIcSt11char_traitsIcESaIcEEE
FNDA:0,_ZN8Category14getDescriptionEPKcS1_S1_
FNDA:0,_ZN8Category6newUAPEv
FNDA:0,_ZN8Category6getUAPEPKhm
FNF:10
FNH:0
DA:26,0
DA:27,0
DA:28,0
DA:30,0
DA:32,0
DA:33,0
DA:34,0
DA:35,0
DA:39,0
DA:40,0
DA:41,0
DA:42,0
DA:44,0
DA:46,0
DA:47,0
DA:48,0
DA:50,0
DA:51,0
DA:52,0
DA:53,0
DA:58,0
DA:59,0
DA:61,0
DA:64,0
DA:65,0
DA:66,0
DA:68,0
DA:70,0
DA:71,0
DA:72,0
DA:73,0
DA:74,0
DA:75,0
DA:78,0
DA:79,0
DA:81,0
DA:82,0
DA:83,0
DA:84,0
DA:87,0
DA:88,0
DA:89,0
DA:90,0
DA:92,0
DA:93,0
DA:94,0
DA:96,0
DA:99,0
DA:100,0
DA:102,0
DA:104,0
DA:106,0
DA:107,0
DA:109,0
DA:110,0
DA:111,0
DA:112,0
DA:115,0
DA:116,0
DA:118,0
DA:120,0
DA:122,0
DA:123,0
DA:126,0
DA:130,0
DA:133,0
DA:134,0
DA:137,0
DA:138,0
DA:140,0
DA:141,0
DA:143,0
DA:145,0
DA:148,0
DA:149,0
DA:151,0
DA:152,0
DA:153,0
DA:156,0
DA:158,0
DA:159,0
DA:160,0
DA:161,0
DA:164,0
DA:167,0
DA:168,0
DA:169,0
DA:171,0
DA:172,0
DA:173,0
DA:174,0
DA:175,0
DA:178,0
LF:93
LH:0
end_of_record
TN:
SF:/path/to/asterix/src/asterix/DataBlock.cpp
FN:31,66,_ZN9DataBlockC2EP8CategorymPKhd
FN:68,75,_ZN9DataBlockD0Ev
FN:68,75,_ZN9DataBlockD2Ev
FN:77,112,_ZN9DataBlock7getTextERNSt7__cxx1112basic_stringIcSt11char_traitsIcESaIcEEEj
FNDA:0,_ZN9DataBlockC2EP8CategorymPKhd
FNDA:0,_ZN9DataBlockD0Ev
FNDA:0,_ZN9DataBlockD2Ev
FNDA:0,_ZN9DataBlock7getTextERNSt7__cxx1112basic_stringIcSt11char_traitsIcESaIcEEEj
FNF:4
FNH:0
DA:31,0
DA:32,0
DA:33,0
DA:34,0
DA:35,0
DA:37,0
DA:38,0
DA:39,0
DA:42,0
DA:43,0
DA:45,0
DA:46,0
DA:47,0
DA:50,0
DA:52,0
DA:53,0
DA:54,0
DA:57,0
DA:58,0
DA:61,0
DA:62,0
DA:65,0
DA:66,0
DA:68,0
DA:70,0
DA:71,0
DA:72,0
DA:73,0
DA:75,0
DA:77,0
DA:78,0
DA:80,0
DA:81,0
DA:84,0
DA:85,0
DA:86,0
DA:87,0
DA:88,0
DA:89,0
DA:90,0
DA:91,0
DA:92,0
DA:93,0
DA:96,0
DA:97,0
DA:98,0
DA:101,0
DA:103,0
DA:104,0
DA:105,0
DA:106,0
DA:107,0
DA:111,0
DA:112,0
LF:54
LH:0
end_of_record
TN:
SF:/path/to/asterix/src/asterix/DataItem.cpp
FN:29,31,_ZN8DataItemC2EP19DataItemDescription
FN:33,36,_ZN8DataItemD0Ev
FN:33,36,_ZN8DataItemD2Ev
FN:38,96,_ZN8DataItem7getTextERNSt7__cxx1112basic_stringIcSt11char_traitsIcESaIcEEES6_j
FN:98,121,_ZN8DataItem5parseEPKhl
FNDA:0,_ZN8DataItemC2EP19DataItemDescription
FNDA:0,_ZN8DataItemD0Ev
FNDA:0,_ZN8DataItemD2Ev
FNDA:0,_ZN8DataItem7getTextERNSt7__cxx1112basic_stringIcSt11char_traitsIcESaIcEEES6_j
FNDA:0,_ZN8DataItem5parseEPKhl
FNF:5
FNH:0
DA:29,0
DA:30,0
DA:31,0
DA:33,0
DA:34,0
DA:35,0
DA:36,0
DA:38,0
DA:39,0
DA:40,0
DA:41,0
DA:43,0
DA:44,0
DA:45,0
DA:46,0
DA:47,0
DA:49,0
DA:50,0
DA:51,0
DA:52,0
DA:53,0
DA:54,0
DA:55,0
DA:56,0
DA:57,0
DA:58,0
DA:59,0
DA:60,0
DA:61,0
DA:62,0
DA:63,0
DA:65,0
DA:66,0
DA:67,0
DA:68,0
DA:69,0
DA:72,0
DA:73,0
DA:75,0
DA:77,0
DA:78,0
DA:79,0
DA:80,0
DA:81,0
DA:82,0
DA:83,0
DA:84,0
DA:85,0
DA:89,0
DA:90,0
DA:92,0
DA:95,0
DA:96,0
DA:98,0
DA:99,0
DA:100,0
DA:101,0
DA:104,0
DA:106,0
DA:108,0
DA:109,0
DA:110,0
DA:112,0
DA:114,0
DA:115,0
DA:116,0
DA:118,0
DA:120,0
LF:68
LH:0
end_of_record
TN:
SF:/path/to/asterix/src/asterix/DataItemBits.cpp
FN:152,190,_ZN12DataItemBits11getUnsignedEPhiii
FN:192,205,_ZN12DataItemBits9getSignedEPhiii
FN:207,252,_ZN12DataItemBits15getSixBitStringEPhiii
FN:254,282,_ZN12DataItemBits15getHexBitStringEPhiii
FN:284,320,_ZN12DataItemBits23getHexBitStringFullByteEPhiii
FN:322,350,_ZN12DataItemBits19getHexBitStringMaskEiii
FN:353,400,_ZN12DataItemBits8getOctalEPhiii
FN:37,42,_ZN12DataItemBitsC2Ei
FN:402,427,_ZN12DataItemBits8getASCIIEPhiii
FN:44,78,_ZN12DataItemBitsC2ERKS_
FN:451,860,_ZN12DataItemBits7getTextERNSt7__cxx1112basic_stringIcSt11char_traitsIcESaIcEEES6_jPhl
FN:81,88,_ZN12DataItemBitsD0Ev
FN:81,88,_ZN12DataItemBitsD2Ev
FN:862,880,_ZN12DataItemBits16printDescriptorsENSt7__cxx1112basic_stringIcSt11char_traitsIcESaIcEEE
FN:882,888,_ZN12DataItemBits13filterOutItemEPKc
FN:890,913,_ZN12DataItemBits14getDescriptionEPKcS1_
FN:90,93,_ZN12DataItemBits9getLengthEPKh
FN:95,150,_ZN12DataItemBits7getBitsEPhiii
FNDA:0,_ZN12DataItemBits11getUnsignedEPhiii
FNDA:0,_ZN12DataItemBits9getSignedEPhiii
FNDA:0,_ZN12DataItemBits15getSixBitStringEPhiii
FNDA:0,_ZN12DataItemBits15getHexBitStringEPhiii
FNDA:0,_ZN12DataItemBits23getHexBitStringFullByteEPhiii
FNDA:0,_ZN12DataItemBits19getHexBitStringMaskEiii
FNDA:0,_ZN12DataItemBits8getOctalEPhiii
FNDA:0,_ZN12DataItemBitsC2Ei
FNDA:0,_ZN12DataItemBits8getASCIIEPhiii
FNDA:0,_ZN12DataItemBitsC2ERKS_
FNDA:0,_ZN12DataItemBits7getTextERNSt7__cxx1112basic_stringIcSt11char_traitsIcESaIcEEES6_jPhl
FNDA:0,_ZN12DataItemBitsD0Ev
FNDA:0,_ZN12DataItemBitsD2Ev
FNDA:0,_ZN12DataItemBits16printDescriptorsENSt7__cxx1112basic_stringIcSt11char_traitsIcESaIcEEE
FNDA:0,_ZN12DataItemBits13filterOutItemEPKc
FNDA:0,_ZN12DataItemBits14getDescriptionEPKcS1_
FNDA:0,_ZN12DataItemBits9getLengthEPKh
FNDA:0,_ZN12DataItemBits7getBitsEPhiii
FNF:18
FNH:0
DA:37,0
DA:38,0
DA:39,0
DA:40,0
DA:42,0
DA:44,0
DA:45,0
DA:46,0
DA:47,0
DA:48,0
DA:49,0
DA:50,0
DA:53,0
DA:55,0
DA:56,0
DA:57,0
DA:58,0
DA:59,0
DA:60,0
DA:61,0
DA:62,0
DA:63,0
DA:64,0
DA:65,0
DA:66,0
DA:67,0
DA:68,0
DA:69,0
DA:71,0
DA:72,0
DA:73,0
DA:74,0
DA:75,0
DA:77,0
DA:78,0
DA:81,0
DA:83,0
DA:84,0
DA:85,0
DA:86,0
DA:88,0
DA:90,0
DA:91,0
DA:92,0
DA:95,0
DA:105,0
DA:106,0
DA:108,0
DA:109,0
DA:110,0
DA:113,0
DA:114,0
DA:115,0
DA:117,0
DA:118,0
DA:119,0
DA:122,0
DA:123,0
DA:124,0
DA:125,0
DA:126,0
DA:127,0
DA:128,0
DA:129,0
DA:131,0
DA:132,0
DA:133,0
DA:137,0
DA:138,0
DA:140,0
DA:141,0
DA:142,0
DA:146,0
DA:147,0
DA:149,0
DA:152,0
DA:153,0
DA:154,0
DA:156,0
DA:157,0
DA:161,0
DA:163,0
DA:164,0
DA:165,0
DA:168,0
DA:169,0
DA:171,0
DA:172,0
DA:173,0
DA:174,0
DA:175,0
DA:176,0
DA:177,0
DA:179,0
DA:180,0
DA:181,0
DA:182,0
DA:183,0
DA:187,0
DA:189,0
DA:192,0
DA:193,0
DA:194,0
DA:195,0
DA:196,0
DA:197,0
DA:199,0
DA:200,0
DA:201,0
DA:202,0
DA:204,0
DA:207,0
DA:208,0
DA:209,0
DA:210,0
DA:211,0
DA:214,0
DA:216,0
DA:217,0
DA:218,0
DA:221,0
DA:222,0
DA:223,0
DA:224,0
DA:226,0
DA:227,0
DA:228,0
DA:229,0
DA:230,0
DA:231,0
DA:232,0
DA:233,0
DA:234,0
DA:236,0
DA:237,0
DA:238,0
DA:239,0
DA:240,0
DA:243,0
DA:244,0
DA:245,0
DA:246,0
DA:247,0
DA:250,0
DA:251,0
DA:254,0
DA:255,0
DA:256,0
DA:257,0
DA:258,0
DA:261,0
DA:263,0
DA:264,0
DA:265,0
DA:268,0
DA:269,0
DA:271,0
DA:273,0
DA:275,0
DA:277,0
DA:280,0
DA:281,0
DA:284,0
DA:285,0
DA:286,0
DA:287,0
DA:288,0
DA:291,0
DA:292,0
DA:294,0
DA:295,0
DA:297,0
DA:299,0
DA:301,0
DA:302,0
DA:303,0
DA:306,0
DA:307,0
DA:309,0
DA:311,0
DA:313,0
DA:315,0
DA:318,0
DA:319,0
DA:322,0
DA:323,0
DA:324,0
DA:325,0
DA:326,0
DA:329,0
DA:330,0
DA:331,0
DA:333,0
DA:334,0
DA:335,0
DA:337,0
DA:339,0
DA:340,0
DA:341,0
DA:342,0
DA:343,0
DA:344,0
DA:346,0
DA:348,0
DA:349,0
DA:353,0
DA:354,0
DA:355,0
DA:356,0
DA:357,0
DA:360,0
DA:362,0
DA:363,0
DA:364,0
DA:367,0
DA:368,0
DA:369,0
DA:370,0
DA:372,0
DA:373,0
DA:374,0
DA:375,0
DA:377,0
DA:378,0
DA:379,0
DA:380,0
DA:381,0
DA:383,0
DA:384,0
DA:385,0
DA:386,0
DA:387,0
DA:390,0
DA:391,0
DA:392,0
DA:393,0
DA:394,0
DA:398,0
DA:399,0
DA:402,0
DA:404,0
DA:405,0
DA:406,0
DA:407,0
DA:410,0
DA:411,0
DA:413,0
DA:414,0
DA:417,0
DA:418,0
DA:419,0
DA:421,0
DA:424,0
DA:425,0
DA:426,0
DA:451,0
DA:453,0
DA:454,0
DA:456,0
DA:457,0
DA:458,0
DA:459,0
DA:462,0
DA:463,0
DA:464,0
DA:467,0
DA:468,0
DA:469,0
DA:470,0
DA:474,0
DA:476,0
DA:478,0
DA:479,0
DA:480,0
DA:481,0
DA:482,0
DA:483,0
DA:484,0
DA:485,0
DA:486,0
DA:487,0
DA:488,0
DA:489,0
DA:490,0
DA:491,0
DA:492,0
DA:493,0
DA:494,0
DA:497,0
DA:498,0
DA:499,0
DA:501,0
DA:502,0
DA:503,0
DA:505,0
DA:506,0
DA:507,0
DA:509,0
DA:510,0
DA:512,0
DA:513,0
DA:515,0
DA:516,0
DA:517,0
DA:519,0
DA:520,0
DA:521,0
DA:522,0
DA:523,0
DA:524,0
DA:525,0
DA:528,0
DA:529,0
DA:533,0
DA:534,0
DA:535,0
DA:537,0
DA:538,0
DA:539,0
DA:541,0
DA:542,0
DA:544,0
DA:545,0
DA:547,0
DA:548,0
DA:549,0
DA:551,0
DA:552,0
DA:553,0
DA:554,0
DA:555,0
DA:556,0
DA:557,0
DA:560,0
DA:561,0
DA:565,0
DA:566,0
DA:567,0
DA:568,0
DA:569,0
DA:571,0
DA:574,0
DA:575,0
DA:576,0
DA:578,0
DA:579,0
DA:580,0
DA:581,0
DA:584,0
DA:586,0
DA:587,0
DA:588,0
DA:589,0
DA:590,0
DA:591,0
DA:592,0
DA:595,0
DA:596,0
DA:600,0
DA:601,0
DA:602,0
DA:603,0
DA:604,0
DA:606,0
DA:611,0
DA:613,0
DA:614,0
DA:616,0
DA:617,0
DA:618,0
DA:620,0
DA:621,0
DA:622,0
DA:624,0
DA:625,0
DA:627,0
DA:628,0
DA:632,0
DA:633,0
DA:634,0
DA:636,0
DA:637,0
DA:638,0
DA:640,0
DA:641,0
DA:643,0
DA:644,0
DA:648,0
DA:649,0
DA:650,0
DA:651,0
DA:652,0
DA:654,0
DA:657,0
DA:658,0
DA:659,0
DA:661,0
DA:662,0
DA:663,0
DA:664,0
DA:667,0
DA:669,0
DA:670,0
DA:671,0
DA:672,0
DA:673,0
DA:674,0
DA:675,0
DA:678,0
DA:679,0
DA:683,0
DA:684,0
DA:685,0
DA:686,0
DA:687,0
DA:689,0
DA:694,0
DA:696,0
DA:697,0
DA:699,0
DA:700,0
DA:701,0
DA:702,0
DA:703,0
DA:704,0
DA:705,0
DA:706,0
DA:708,0
DA:709,0
DA:710,0
DA:711,0
DA:713,0
DA:714,0
DA:715,0
DA:717,0
DA:718,0
DA:719,0
DA:720,0
DA:723,0
DA:724,0
DA:726,0
DA:727,0
DA:728,0
DA:730,0
DA:732,0
DA:734,0
DA:735,0
DA:737,0
DA:738,0
DA:739,0
DA:740,0
DA:741,0
DA:742,0
DA:743,0
DA:744,0
DA:746,0
DA:747,0
DA:748,0
DA:749,0
DA:750,0
DA:751,0
DA:752,0
DA:754,0
DA:755,0
DA:756,0
DA:757,0
DA:759,0
DA:761,0
DA:762,0
DA:763,0
DA:764,0
DA:766,0
DA:768,0
DA:770,0
DA:771,0
DA:772,0
DA:773,0
DA:774,0
DA:775,0
DA:776,0
DA:777,0
DA:778,0
DA:779,0
DA:781,0
DA:782,0
DA:783,0
DA:784,0
DA:785,0
DA:786,0
DA:787,0
DA:789,0
DA:790,0
DA:791,0
DA:792,0
DA:794,0
DA:796,0
DA:797,0
DA:798,0
DA:799,0
DA:801,0
DA:803,0
DA:804,0
DA:805,0
DA:806,0
DA:807,0
DA:808,0
DA:809,0
DA:810,0
DA:811,0
DA:812,0
DA:813,0
DA:815,0
DA:816,0
DA:817,0
DA:818,0
DA:819,0
DA:820,0
DA:821,0
DA:823,0
DA:824,0
DA:825,0
DA:826,0
DA:828,0
DA:830,0
DA:831,0
DA:832,0
DA:834,0
DA:836,0
DA:837,0
DA:838,0
DA:839,0
DA:842,0
DA:843,0
DA:845,0
DA:846,0
DA:847,0
DA:848,0
DA:849,0
DA:850,0
DA:852,0
DA:853,0
DA:857,0
DA:859,0
DA:860,0
DA:862,0
DA:863,0
DA:865,0
DA:866,0
DA:869,0
DA:871,0
DA:872,0
DA:873,0
DA:874,0
DA:875,0
DA:877,0
DA:879,0
DA:880,0
DA:882,0
DA:883,0
DA:884,0
DA:885,0
DA:887,0
DA:890,0
DA:891,0
DA:892,0
DA:893,0
DA:894,0
DA:897,0
DA:898,0
DA:899,0
DA:901,0
DA:902,0
DA:903,0
DA:904,0
DA:905,0
DA:906,0
DA:907,0
DA:912,0
LF:578
LH:0
end_of_record
TN:
SF:/path/to/asterix/src/asterix/DataItemBits.h
FN:32,32,_ZN9BitsValueC2Ei
FN:34,37,_ZN9BitsValueC2EiNSt7__cxx1112basic_stringIcSt11char_traitsIcESaIcEEE
FN:84,84,_ZNK12DataItemBits5cloneEv
FN:89,89,_ZN12DataItemBits10isFilteredEPKc
FN:90,90,_ZN12DataItemBits6isBitsEv
FNDA:0,_ZN9BitsValueC2Ei
FNDA:0,_ZN9BitsValueC2EiNSt7__cxx1112basic_stringIcSt11char_traitsIcESaIcEEE
FNDA:0,_ZNK12DataItemBits5cloneEv
FNDA:0,_ZN12DataItemBits10isFilteredEPKc
FNDA:0,_ZN12DataItemBits6isBitsEv
FNF:5
FNH:0
DA:32,0
DA:34,0
DA:35,0
DA:36,0
DA:37,0
DA:84,0
DA:89,0
DA:90,0
LF:8
LH:0
end_of_record
TN:
SF:/path/to/asterix/src/asterix/DataItemDescription.cpp
FN:27,30,_ZN19DataItemDescriptionC2ENSt7__cxx1112basic_stringIcSt11char_traitsIcESaIcEEE
FN:32,37,_ZN19DataItemDescriptionD0Ev
FN:32,37,_ZN19DataItemDescriptionD2Ev
FNDA:0,_ZN19DataItemDescriptionC2ENSt7__cxx1112basic_stringIcSt11char_traitsIcESaIcEEE
FNDA:0,_ZN19DataItemDescriptionD0Ev
FNDA:0,_ZN19DataItemDescriptionD2Ev
FNF:3
FNH:0
DA:27,0
DA:28,0
DA:29,0
DA:30,0
DA:32,0
DA:33,0
DA:34,0
DA:35,0
DA:37,0
LF:9
LH:0
end_of_record
TN:
SF:/path/to/asterix/src/asterix/DataItemDescription.h
FN:45,49,_ZN19DataItemDescription7getTextERNSt7__cxx1112basic_stringIcSt11char_traitsIcESaIcEEES6_jPhl
FNDA:0,_ZN19DataItemDescription7getTextERNSt7__cxx1112basic_stringIcSt11char_traitsIcESaIcEEES6_jPhl
FNF:1
FNH:0
DA:45,0
DA:48,0
LF:2
LH:0
end_of_record
TN:
SF:/path/to/asterix/src/asterix/DataItemFormat.cpp
FN:30,35,_ZN14DataItemFormatC2Ei
FN:37,44,_ZN14DataItemFormatD0Ev
FN:37,44,_ZN14DataItemFormatD2Ev
FNDA:246,_ZN14DataItemFormatC2Ei
FNDA:0,_ZN14DataItemFormatD0Ev
FNDA:246,_ZN14DataItemFormatD2Ev
FNF:3
FNH:2
DA:30,246
DA:31,246
DA:35,246
DA:37,246
DA:39,246
DA:40,246
DA:41,0
DA:42,0
DA:44,246
LF:9
LH:7
end_of_record
TN:
SF:/path/to/asterix/src/asterix/DataItemFormat.h
FN:68,68,_ZN14DataItemFormat7isFixedEv
FN:69,69,_ZN14DataItemFormat12isRepetitiveEv
FN:70,70,_ZN14DataItemFormat5isBDSEv
FN:71,71,_ZN14DataItemFormat10isVariableEv
FN:72,72,_ZN14DataItemFormat10isExplicitEv
FN:73,73,_ZN14DataItemFormat10isCompoundEv
FN:74,74,_ZN14DataItemFormat6isBitsEv
FNDA:0,_ZN14DataItemFormat7isFixedEv
FNDA:0,_ZN14DataItemFormat12isRepetitiveEv
FNDA:0,_ZN14DataItemFormat5isBDSEv
FNDA:0,_ZN14DataItemFormat10isVariableEv
FNDA:0,_ZN14DataItemFormat10isExplicitEv
FNDA:0,_ZN14DataItemFormat10isCompoundEv
FNDA:0,_ZN14DataItemFormat6isBitsEv
FNF:7
FNH:0
DA:68,0
DA:69,0
DA:70,0
DA:71,0
DA:72,0
DA:73,0
DA:74,0
LF:7
LH:0
end_of_record
TN:
SF:/path/to/asterix/src/asterix/DataItemFormatBDS.cpp
FN:106,123,_ZN17DataItemFormatBDS13filterOutItemEPKc
FN:125,133,_ZN17DataItemFormatBDS10isFilteredEPKc
FN:135,144,_ZN17DataItemFormatBDS14getDescriptionEPKcS1_
FN:28,30,_ZN17DataItemFormatBDSC2Ei
FN:32,33,_ZN17DataItemFormatBDSD0Ev
FN:32,33,_ZN17DataItemFormatBDSD2Ev
FN:35,46,_ZN17DataItemFormatBDSC2ERKS_
FN:49,51,_ZN17DataItemFormatBDS9getLengthEPKh
FN:53,87,_ZN17DataItemFormatBDS7getTextERNSt7__cxx1112basic_stringIcSt11char_traitsIcESaIcEEES6_jPhl
FN:89,104,_ZN17DataItemFormatBDS16printDescriptorsENSt7__cxx1112basic_stringIcSt11char_traitsIcESaIcEEE
FNDA:0,_ZN17DataItemFormatBDS13filterOutItemEPKc
FNDA:0,_ZN17DataItemFormatBDS10isFilteredEPKc
FNDA:0,_ZN17DataItemFormatBDS14getDescriptionEPKcS1_
FNDA:0,_ZN17DataItemFormatBDSC2Ei
FNDA:0,_ZN17DataItemFormatBDSD0Ev
FNDA:0,_ZN17DataItemFormatBDSD2Ev
FNDA:0,_ZN17DataItemFormatBDSC2ERKS_
FNDA:0,_ZN17DataItemFormatBDS9getLengthEPKh
FNDA:0,_ZN17DataItemFormatBDS7getTextERNSt7__cxx1112basic_stringIcSt11char_traitsIcESaIcEEES6_jPhl
FNDA:0,_ZN17DataItemFormatBDS16printDescriptorsENSt7__cxx1112basic_stringIcSt11char_traitsIcESaIcEEE
FNF:10
FNH:0
DA:28,0
DA:29,0
DA:30,0
DA:32,0
DA:33,0
DA:35,0
DA:36,0
DA:37,0
DA:39,0
DA:40,0
DA:41,0
DA:42,0
DA:45,0
DA:46,0
DA:49,0
DA:50,0
DA:53,0
DA:55,0
DA:57,0
DA:58,0
DA:59,0
DA:62,0
DA:64,0
DA:67,0
DA:68,0
DA:69,0
DA:70,0
DA:71,0
DA:73,0
DA:74,0
DA:75,0
DA:76,0
DA:78,0
DA:79,0
DA:80,0
DA:83,0
DA:84,0
DA:86,0
DA:87,0
DA:89,0
DA:90,0
DA:91,0
DA:92,0
DA:93,0
DA:94,0
DA:95,0
DA:97,0
DA:99,0
DA:100,0
DA:101,0
DA:103,0
DA:104,0
DA:106,0
DA:107,0
DA:108,0
DA:111,0
DA:112,0
DA:114,0
DA:115,0
DA:116,0
DA:117,0
DA:118,0
DA:120,0
DA:122,0
DA:125,0
DA:126,0
DA:127,0
DA:128,0
DA:129,0
DA:132,0
DA:135,0
DA:136,0
DA:137,0
DA:138,0
DA:139,0
DA:140,0
DA:141,0
DA:143,0
LF:78
LH:0
end_of_record
TN:
SF:/path/to/asterix/src/asterix/DataItemFormatBDS.h
FN:38,38,_ZNK17DataItemFormatBDS5cloneEv
FN:47,47,_ZN17DataItemFormatBDS5isBDSEv
FNDA:0,_ZNK17DataItemFormatBDS5cloneEv
FNDA:0,_ZN17DataItemFormatBDS5isBDSEv
FNF:2
FNH:0
DA:38,0
DA:47,0
LF:2
LH:0
end_of_record
TN:
SF:/path/to/asterix/src/asterix/DataItemFormatCompound.cpp
FN:196,205,_ZN22DataItemFormatCompound16printDescriptorsENSt7__cxx1112basic_stringIcSt11char_traitsIcESaIcEEE
FN:207,215,_ZN22DataItemFormatCompound13filterOutItemEPKc
FN:217,225,_ZN22DataItemFormatCompound10isFilteredEPKc
FN:227,236,_ZN22DataItemFormatCompound14getDescriptionEPKcS1_
FN:28,30,_ZN22DataItemFormatCompoundC2Ei
FN:32,43,_ZN22DataItemFormatCompoundC2ERKS_
FN:45,46,_ZN22DataItemFormatCompoundD0Ev
FN:45,46,_ZN22DataItemFormatCompoundD2Ev
FN:48,93,_ZN22DataItemFormatCompound9getLengthEPKh
FN:95,194,_ZN22DataItemFormatCompound7getTextERNSt7__cxx1112basic_stringIcSt11char_traitsIcESaIcEEES6_jPhl
FNDA:0,_ZN22DataItemFormatCompound16printDescriptorsENSt7__cxx1112basic_stringIcSt11char_traitsIcESaIcEEE
FNDA:0,_ZN22DataItemFormatCompound13filterOutItemEPKc
FNDA:0,_ZN22DataItemFormatCompound10isFilteredEPKc
FNDA:0,_ZN22DataItemFormatCompound14getDescriptionEPKcS1_
FNDA:0,_ZN22DataItemFormatCompoundC2Ei
FNDA:0,_ZN22DataItemFormatCompoundC2ERKS_
FNDA:0,_ZN22DataItemFormatCompoundD0Ev
FNDA:0,_ZN22DataItemFormatCompoundD2Ev
FNDA:0,_ZN22DataItemFormatCompound9getLengthEPKh
FNDA:0,_ZN22DataItemFormatCompound7getTextERNSt7__cxx1112basic_stringIcSt11char_traitsIcESaIcEEES6_jPhl
FNF:10
FNH:0
DA:28,0
DA:29,0
DA:30,0
DA:32,0
DA:33,0
DA:34,0
DA:36,0
DA:37,0
DA:38,0
DA:39,0
DA:42,0
DA:43,0
DA:45,0
DA:46,0
DA:48,0
DA:49,0
DA:50,0
DA:51,0
DA:52,0
DA:53,0
DA:54,0
DA:55,0
DA:56,0
DA:58,0
DA:59,0
DA:60,0
DA:61,0
DA:64,0
DA:65,0
DA:66,0
DA:68,0
DA:69,0
DA:70,0
DA:71,0
DA:73,0
DA:74,0
DA:76,0
DA:77,0
DA:78,0
DA:79,0
DA:80,0
DA:81,0
DA:83,0
DA:84,0
DA:86,0
DA:88,0
DA:89,0
DA:92,0
DA:95,0
DA:97,0
DA:98,0
DA:99,0
DA:100,0
DA:101,0
DA:102,0
DA:103,0
DA:104,0
DA:106,0
DA:107,0
DA:108,0
DA:109,0
DA:112,0
DA:113,0
DA:116,0
DA:118,0
DA:121,0
DA:122,0
DA:124,0
DA:125,0
DA:126,0
DA:127,0
DA:129,0
DA:130,0
DA:132,0
DA:133,0
DA:134,0
DA:135,0
DA:136,0
DA:138,0
DA:139,0
DA:141,0
DA:144,0
DA:145,0
DA:147,0
DA:148,0
DA:149,0
DA:150,0
DA:152,0
DA:153,0
DA:155,0
DA:156,0
DA:158,0
DA:161,0
DA:162,0
DA:163,0
DA:164,0
DA:165,0
DA:167,0
DA:169,0
DA:170,0
DA:171,0
DA:174,0
DA:176,0
DA:177,0
DA:180,0
DA:181,0
DA:184,0
DA:185,0
DA:187,0
DA:190,0
DA:193,0
DA:196,0
DA:197,0
DA:199,0
DA:200,0
DA:201,0
DA:202,0
DA:204,0
DA:205,0
DA:207,0
DA:208,0
DA:209,0
DA:210,0
DA:211,0
DA:212,0
DA:214,0
DA:217,0
DA:218,0
DA:219,0
DA:220,0
DA:221,0
DA:222,0
DA:224,0
DA:227,0
DA:228,0
DA:229,0
DA:230,0
DA:231,0
DA:232,0
DA:233,0
DA:235,0
LF:141
LH:0
end_of_record
TN:
SF:/path/to/asterix/src/asterix/DataItemFormatCompound.h
FN:39,39,_ZNK22DataItemFormatCompound5cloneEv
FN:48,48,_ZN22DataItemFormatCompound10isCompoundEv
FNDA:0,_ZNK22DataItemFormatCompound5cloneEv
FNDA:0,_ZN22DataItemFormatCompound10isCompoundEv
FNF:2
FNH:0
DA:39,0
DA:48,0
LF:2
LH:0
end_of_record
TN:
SF:/path/to/asterix/src/asterix/DataItemFormatExplicit.cpp
FN:128,137,_ZN22DataItemFormatExplicit16printDescriptorsENSt7__cxx1112basic_stringIcSt11char_traitsIcESaIcEEE
FN:139,147,_ZN22DataItemFormatExplicit13filterOutItemEPKc
FN:149,157,_ZN22DataItemFormatExplicit10isFilteredEPKc
FN:159,168,_ZN22DataItemFormatExplicit14getDescriptionEPKcS1_
FN:28,30,_ZN22DataItemFormatExplicitC2Ei
FN:32,43,_ZN22DataItemFormatExplicitC2ERKS_
FN:45,46,_ZN22DataItemFormatExplicitD0Ev
FN:45,46,_ZN22DataItemFormatExplicitD2Ev
FN:48,50,_ZN22DataItemFormatExplicit9getLengthEPKh
FN:52,126,_ZN22DataItemFormatExplicit7getTextERNSt7__cxx1112basic_stringIcSt11char_traitsIcESaIcEEES6_jPhl
FNDA:0,_ZN22DataItemFormatExplicit16printDescriptorsENSt7__cxx1112basic_stringIcSt11char_traitsIcESaIcEEE
FNDA:0,_ZN22DataItemFormatExplicit13filterOutItemEPKc
FNDA:0,_ZN22DataItemFormatExplicit10isFilteredEPKc
FNDA:0,_ZN22DataItemFormatExplicit14getDescriptionEPKcS1_
FNDA:0,_ZN22DataItemFormatExplicitC2Ei
FNDA:0,_ZN22DataItemFormatExplicitC2ERKS_
FNDA:0,_ZN22DataItemFormatExplicitD0Ev
FNDA:0,_ZN22DataItemFormatExplicitD2Ev
FNDA:0,_ZN22DataItemFormatExplicit9getLengthEPKh
FNDA:0,_ZN22DataItemFormatExplicit7getTextERNSt7__cxx1112basic_stringIcSt11char_traitsIcESaIcEEES6_jPhl
FNF:10
FNH:0
DA:28,0
DA:29,0
DA:30,0
DA:32,0
DA:33,0
DA:34,0
DA:36,0
DA:37,0
DA:38,0
DA:39,0
DA:42,0
DA:43,0
DA:45,0
DA:46,0
DA:48,0
DA:49,0
DA:52,0
DA:54,0
DA:55,0
DA:56,0
DA:58,0
DA:59,0
DA:60,0
DA:63,0
DA:66,0
DA:67,0
DA:68,0
DA:71,0
DA:74,0
DA:75,0
DA:76,0
DA:79,0
DA:81,0
DA:82,0
DA:83,0
DA:86,0
DA:91,0
DA:92,0
DA:93,0
DA:94,0
DA:95,0
DA:97,0
DA:98,0
DA:99,0
DA:102,0
DA:109,0
DA:110,0
DA:111,0
DA:114,0
DA:115,0
DA:117,0
DA:123,0
DA:125,0
DA:126,0
DA:128,0
DA:129,0
DA:131,0
DA:132,0
DA:133,0
DA:134,0
DA:136,0
DA:137,0
DA:139,0
DA:140,0
DA:141,0
DA:142,0
DA:143,0
DA:144,0
DA:146,0
DA:149,0
DA:150,0
DA:151,0
DA:152,0
DA:153,0
DA:154,0
DA:156,0
DA:159,0
DA:160,0
DA:161,0
DA:162,0
DA:163,0
DA:164,0
DA:165,0
DA:167,0
LF:84
LH:0
end_of_record
TN:
SF:/path/to/asterix/src/asterix/DataItemFormatExplicit.h
FN:39,39,_ZNK22DataItemFormatExplicit5cloneEv
FN:48,48,_ZN22DataItemFormatExplicit10isExplicitEv
FNDA:0,_ZNK22DataItemFormatExplicit5cloneEv
FNDA:0,_ZN22DataItemFormatExplicit10isExplicitEv
FNF:2
FNH:0
DA:39,0
DA:48,0
LF:2
LH:0
end_of_record
TN:
SF:/path/to/asterix/src/asterix/DataItemFormatFixed.cpp
FN:106,121,_ZN19DataItemFormatFixed11getPartNameB5cxx11Ei
FN:123,157,_ZN19DataItemFormatFixed22isSecondaryPartPresentEPKhi
FN:159,196,_ZN19DataItemFormatFixed7getTextERNSt7__cxx1112basic_stringIcSt11char_traitsIcESaIcEEES6_jPhl
FN:198,208,_ZN19DataItemFormatFixed16printDescriptorsENSt7__cxx1112basic_stringIcSt11char_traitsIcESaIcEEE
FN:210,219,_ZN19DataItemFormatFixed13filterOutItemEPKc
FN:221,230,_ZN19DataItemFormatFixed10isFilteredEPKc
FN:232,241,_ZN19DataItemFormatFixed14getDescriptionEPKcS1_
FN:28,30,_ZN19DataItemFormatFixedC2Ei
FN:32,43,_ZN19DataItemFormatFixedC2ERKS_
FN:45,52,_ZN19DataItemFormatFixedD0Ev
FN:45,52,_ZN19DataItemFormatFixedD2Ev
FN:54,56,_ZN19DataItemFormatFixed9getLengthEv
FN:58,60,_ZN19DataItemFormatFixed9getLengthEPKh
FN:65,104,_ZN19DataItemFormatFixed10isLastPartEPKh
FNDA:0,_ZN19DataItemFormatFixed11getPartNameB5cxx11Ei
FNDA:0,_ZN19DataItemFormatFixed22isSecondaryPartPresentEPKhi
FNDA:0,_ZN19DataItemFormatFixed7getTextERNSt7__cxx1112basic_stringIcSt11char_traitsIcESaIcEEES6_jPhl
FNDA:0,_ZN19DataItemFormatFixed16printDescriptorsENSt7__cxx1112basic_stringIcSt11char_traitsIcESaIcEEE
FNDA:0,_ZN19DataItemFormatFixed13filterOutItemEPKc
FNDA:0,_ZN19DataItemFormatFixed10isFilteredEPKc
FNDA:0,_ZN19DataItemFormatFixed14getDescriptionEPKcS1_
FNDA:0,_ZN19DataItemFormatFixedC2Ei
FNDA:0,_ZN19DataItemFormatFixedC2ERKS_
FNDA:0,_ZN19DataItemFormatFixedD0Ev
FNDA:0,_ZN19DataItemFormatFixedD2Ev
FNDA:0,_ZN19DataItemFormatFixed9getLengthEv
FNDA:0,_ZN19DataItemFormatFixed9getLengthEPKh
FNDA:0,_ZN19DataItemFormatFixed10isLastPartEPKh
FNF:14
FNH:0
DA:28,0
DA:29,0
DA:30,0
DA:32,0
DA:33,0
DA:34,0
DA:36,0
DA:37,0
DA:38,0
DA:39,0
DA:42,0
DA:43,0
DA:45,0
DA:47,0
DA:48,0
DA:49,0
DA:50,0
DA:52,0
DA:54,0
DA:55,0
DA:58,0
DA:59,0
DA:65,0
DA:67,0
DA:68,0
DA:69,0
DA:70,0
DA:71,0
DA:72,0
DA:74,0
DA:75,0
DA:77,0
DA:78,0
DA:79,0
DA:83,0
DA:85,0
DA:87,0
DA:88,0
DA:89,0
DA:91,0
DA:92,0
DA:95,0
DA:96,0
DA:98,0
DA:103,0
DA:106,0
DA:107,0
DA:110,0
DA:111,0
DA:112,0
DA:113,0
DA:114,0
DA:115,0
DA:116,0
DA:119,0
DA:120,0
DA:123,0
DA:125,0
DA:126,0
DA:127,0
DA:128,0
DA:129,0
DA:130,0
DA:132,0
DA:133,0
DA:135,0
DA:136,0
DA:137,0
DA:141,0
DA:142,0
DA:144,0
DA:145,0
DA:146,0
DA:149,0
DA:150,0
DA:152,0
DA:156,0
DA:159,0
DA:161,0
DA:162,0
DA:163,0
DA:166,0
DA:167,0
DA:170,0
DA:172,0
DA:175,0
DA:176,0
DA:177,0
DA:178,0
DA:179,0
DA:180,0
DA:183,0
DA:184,0
DA:187,0
DA:188,0
DA:190,0
DA:192,0
DA:195,0
DA:198,0
DA:199,0
DA:201,0
DA:202,0
DA:203,0
DA:204,0
DA:205,0
DA:207,0
DA:208,0
DA:210,0
DA:211,0
DA:212,0
DA:213,0
DA:214,0
DA:215,0
DA:216,0
DA:218,0
DA:221,0
DA:222,0
DA:223,0
DA:224,0
DA:225,0
DA:226,0
DA:227,0
DA:229,0
DA:232,0
DA:233,0
DA:234,0
DA:235,0
DA:236,0
DA:237,0
DA:238,0
DA:240,0
LF:131
LH:0
end_of_record
TN:
SF:/path/to/asterix/src/asterix/DataItemFormatFixed.h
FN:41,41,_ZNK19DataItemFormatFixed5cloneEv
FN:58,58,_ZN19DataItemFormatFixed7isFixedEv
FNDA:0,_ZNK19DataItemFormatFixed5cloneEv
FNDA:0,_ZN19DataItemFormatFixed7isFixedEv
FNF:2
FNH:0
DA:41,0
DA:58,0
LF:2
LH:0
end_of_record
TN:
SF:/path/to/asterix/src/asterix/DataItemFormatRepetitive.cpp
FN:136,144,_ZN24DataItemFormatRepetitive16printDescriptorsENSt7__cxx1112basic_stringIcSt11char_traitsIcESaIcEEE
FN:146,154,_ZN24DataItemFormatRepetitive13filterOutItemEPKc
FN:156,164,_ZN24DataItemFormatRepetitive10isFilteredEPKc
FN:166,175,_ZN24DataItemFormatRepetitive14getDescriptionEPKcS1_
FN:29,31,_ZN24DataItemFormatRepetitiveC2Ei
FN:33,44,_ZN24DataItemFormatRepetitiveC2ERKS_
FN:46,47,_ZN24DataItemFormatRepetitiveD0Ev
FN:46,47,_ZN24DataItemFormatRepetitiveD2Ev
FN:49,77,_ZN24DataItemFormatRepetitive9getLengthEPKh
FN:79,134,_ZN24DataItemFormatRepetitive7getTextERNSt7__cxx1112basic_stringIcSt11char_traitsIcESaIcEEES6_jPhl
FNDA:0,_ZN24DataItemFormatRepetitive16printDescriptorsENSt7__cxx1112basic_stringIcSt11char_traitsIcESaIcEEE
FNDA:0,_ZN24DataItemFormatRepetitive13filterOutItemEPKc
FNDA:0,_ZN24DataItemFormatRepetitive10isFilteredEPKc
FNDA:0,_ZN24DataItemFormatRepetitive14getDescriptionEPKcS1_
FNDA:0,_ZN24DataItemFormatRepetitiveC2Ei
FNDA:0,_ZN24DataItemFormatRepetitiveC2ERKS_
FNDA:0,_ZN24DataItemFormatRepetitiveD0Ev
FNDA:0,_ZN24DataItemFormatRepetitiveD2Ev
FNDA:0,_ZN24DataItemFormatRepetitive9getLengthEPKh
FNDA:0,_ZN24DataItemFormatRepetitive7getTextERNSt7__cxx1112basic_stringIcSt11char_traitsIcESaIcEEES6_jPhl
FNF:10
FNH:0
DA:29,0
DA:30,0
DA:31,0
DA:33,0
DA:34,0
DA:35,0
DA:37,0
DA:38,0
DA:39,0
DA:40,0
DA:43,0
DA:44,0
DA:46,0
DA:47,0
DA:49,0
DA:50,0
DA:51,0
DA:52,0
DA:53,0
DA:55,0
DA:56,0
DA:59,0
DA:60,0
DA:62,0
DA:65,0
DA:69,0
DA:70,0
DA:71,0
DA:73,0
DA:76,0
DA:79,0
DA:81,0
DA:82,0
DA:83,0
DA:84,0
DA:85,0
DA:88,0
DA:89,0
DA:91,0
DA:92,0
DA:93,0
DA:96,0
DA:98,0
DA:99,0
DA:102,0
DA:103,0
DA:104,0
DA:106,0
DA:107,0
DA:108,0
DA:110,0
DA:111,0
DA:114,0
DA:116,0
DA:117,0
DA:119,0
DA:120,0
DA:121,0
DA:122,0
DA:123,0
DA:125,0
DA:126,0
DA:127,0
DA:130,0
DA:133,0
DA:136,0
DA:137,0
DA:138,0
DA:139,0
DA:140,0
DA:143,0
DA:146,0
DA:147,0
DA:148,0
DA:149,0
DA:150,0
DA:153,0
DA:156,0
DA:157,0
DA:158,0
DA:159,0
DA:160,0
DA:163,0
DA:166,0
DA:167,0
DA:168,0
DA:169,0
DA:170,0
DA:171,0
DA:172,0
DA:174,0
LF:91
LH:0
end_of_record
TN:
SF:/path/to/asterix/src/asterix/DataItemFormatRepetitive.h
FN:38,38,_ZNK24DataItemFormatRepetitive5cloneEv
FN:47,47,_ZN24DataItemFormatRepetitive12isRepetitiveEv
FNDA:0,_ZNK24DataItemFormatRepetitive5cloneEv
FNDA:0,_ZN24DataItemFormatRepetitive12isRepetitiveEv
FNF:2
FNH:0
DA:38,0
DA:47,0
LF:2
LH:0
end_of_record
TN:
SF:/path/to/asterix/src/asterix/DataItemFormatVariable.cpp
FN:168,177,_ZN22DataItemFormatVariable16printDescriptorsENSt7__cxx1112basic_stringIcSt11char_traitsIcESaIcEEE
FN:179,187,_ZN22DataItemFormatVariable13filterOutItemEPKc
FN:189,197,_ZN22DataItemFormatVariable10isFilteredEPKc
FN:199,208,_ZN22DataItemFormatVariable14getDescriptionEPKcS1_
FN:28,30,_ZN22DataItemFormatVariableC2Ei
FN:32,43,_ZN22DataItemFormatVariableC2ERKS_
FN:45,52,_ZN22DataItemFormatVariableD0Ev
FN:45,52,_ZN22DataItemFormatVariableD2Ev
FN:54,78,_ZN22DataItemFormatVariable9getLengthEPKh
FN:80,166,_ZN22DataItemFormatVariable7getTextERNSt7__cxx1112basic_stringIcSt11char_traitsIcESaIcEEES6_jPhl
FNDA:0,_ZN22DataItemFormatVariable16printDescriptorsENSt7__cxx1112basic_stringIcSt11char_traitsIcESaIcEEE
FNDA:0,_ZN22DataItemFormatVariable13filterOutItemEPKc
FNDA:0,_ZN22DataItemFormatVariable10isFilteredEPKc
FNDA:0,_ZN22DataItemFormatVariable14getDescriptionEPKcS1_
FNDA:0,_ZN22DataItemFormatVariableC2Ei
FNDA:0,_ZN22DataItemFormatVariableC2ERKS_
FNDA:0,_ZN22DataItemFormatVariableD0Ev
FNDA:0,_ZN22DataItemFormatVariableD2Ev
FNDA:0,_ZN22DataItemFormatVariable9getLengthEPKh
FNDA:0,_ZN22DataItemFormatVariable7getTextERNSt7__cxx1112basic_stringIcSt11char_traitsIcESaIcEEES6_jPhl
FNF:10
FNH:0
DA:28,0
DA:29,0
DA:30,0
DA:32,0
DA:33,0
DA:34,0
DA:36,0
DA:37,0
DA:38,0
DA:39,0
DA:42,0
DA:43,0
DA:45,0
DA:47,0
DA:48,0
DA:49,0
DA:50,0
DA:52,0
DA:54,0
DA:55,0
DA:56,0
DA:57,0
DA:58,0
DA:60,0
DA:63,0
DA:64,0
DA:66,0
DA:67,0
DA:69,0
DA:70,0
DA:71,0
DA:72,0
DA:75,0
DA:77,0
DA:80,0
DA:82,0
DA:84,0
DA:85,0
DA:88,0
DA:89,0
DA:90,0
DA:92,0
DA:93,0
DA:95,0
DA:97,0
DA:98,0
DA:101,0
DA:102,0
DA:104,0
DA:106,0
DA:110,0
DA:112,0
DA:113,0
DA:116,0
DA:117,0
DA:118,0
DA:119,0
DA:120,0
DA:121,0
DA:122,0
DA:123,0
DA:124,0
DA:125,0
DA:129,0
DA:130,0
DA:131,0
DA:132,0
DA:135,0
DA:136,0
DA:138,0
DA:139,0
DA:140,0
DA:141,0
DA:144,0
DA:146,0
DA:147,0
DA:150,0
DA:151,0
DA:152,0
DA:154,0
DA:156,0
DA:157,0
DA:159,0
DA:162,0
DA:165,0
DA:166,0
DA:168,0
DA:169,0
DA:171,0
DA:172,0
DA:173,0
DA:174,0
DA:176,0
DA:177,0
DA:179,0
DA:180,0
DA:181,0
DA:182,0
DA:183,0
DA:184,0
DA:186,0
DA:189,0
DA:190,0
DA:191,0
DA:192,0
DA:193,0
DA:194,0
DA:196,0
DA:199,0
DA:200,0
DA:201,0
DA:202,0
DA:203,0
DA:204,0
DA:205,0
DA:207,0
LF:116
LH:0
end_of_record
TN:
SF:/path/to/asterix/src/asterix/DataItemFormatVariable.h
FN:39,39,_ZNK22DataItemFormatVariable5cloneEv
FN:48,48,_ZN22DataItemFormatVariable10isVariableEv
FNDA:0,_ZNK22DataItemFormatVariable5cloneEv
FNDA:0,_ZN22DataItemFormatVariable10isVariableEv
FNF:2
FNH:0
DA:39,0
DA:48,0
LF:2
LH:0
end_of_record
TN:
SF:/path/to/asterix/src/asterix/DataRecord.cpp
FN:163,176,_ZN10DataRecordD0Ev
FN:163,176,_ZN10DataRecordD2Ev
FN:178,260,_ZN10DataRecord7getTextERNSt7__cxx1112basic_stringIcSt11char_traitsIcESaIcEEES6_j
FN:262,272,_ZN10DataRecord7getItemENSt7__cxx1112basic_stringIcSt11char_traitsIcESaIcEEE
FN:30,161,_ZN10DataRecordC2EP8CategoryimPKhd
FNDA:0,_ZN10DataRecordD0Ev
FNDA:0,_ZN10DataRecordD2Ev
FNDA:0,_ZN10DataRecord7getTextERNSt7__cxx1112basic_stringIcSt11char_traitsIcESaIcEEES6_j
FNDA:0,_ZN10DataRecord7getItemENSt7__cxx1112basic_stringIcSt11char_traitsIcESaIcEEE
FNDA:0,_ZN10DataRecordC2EP8CategoryimPKhd
FNF:5
FNH:0
DA:30,0
DA:31,0
DA:32,0
DA:33,0
DA:34,0
DA:36,0
DA:37,0
DA:38,0
DA:39,0
DA:43,0
DA:44,0
DA:45,0
DA:47,0
DA:48,0
DA:49,0
DA:51,0
DA:52,0
DA:53,0
DA:54,0
DA:55,0
DA:56,0
DA:57,0
DA:59,0
DA:60,0
DA:63,0
DA:64,0
DA:65,0
DA:68,0
DA:69,0
DA:70,0
DA:71,0
DA:72,0
DA:74,0
DA:76,0
DA:77,0
DA:78,0
DA:80,0
DA:82,0
DA:83,0
DA:84,0
DA:87,0
DA:90,0
DA:91,0
DA:92,0
DA:94,0
DA:95,0
DA:96,0
DA:97,0
DA:98,0
DA:101,0
DA:102,0
DA:103,0
DA:104,0
DA:105,0
DA:106,0
DA:109,0
DA:110,0
DA:113,0
DA:115,0
DA:118,0
DA:119,0
DA:120,0
DA:123,0
DA:124,0
DA:125,0
DA:126,0
DA:129,0
DA:132,0
DA:134,0
DA:136,0
DA:140,0
DA:141,0
DA:142,0
DA:144,0
DA:145,0
DA:146,0
DA:148,0
DA:151,0
DA:153,0
DA:154,0
DA:155,0
DA:158,0
DA:161,0
DA:163,0
DA:165,0
DA:166,0
DA:167,0
DA:168,0
DA:171,0
DA:172,0
DA:174,0
DA:175,0
DA:176,0
DA:178,0
DA:179,0
DA:180,0
DA:181,0
DA:184,0
DA:186,0
DA:187,0
DA:188,0
DA:189,0
DA:190,0
DA:191,0
DA:192,0
DA:193,0
DA:194,0
DA:196,0
DA:197,0
DA:198,0
DA:200,0
DA:202,0
DA:203,0
DA:204,0
DA:206,0
DA:207,0
DA:209,0
DA:210,0
DA:215,0
DA:217,0
DA:218,0
DA:219,0
DA:220,0
DA:221,0
DA:222,0
DA:223,0
DA:225,0
DA:226,0
DA:227,0
DA:228,0
DA:229,0
DA:231,0
DA:232,0
DA:235,0
DA:236,0
DA:241,0
DA:242,0
DA:243,0
DA:244,0
DA:245,0
DA:246,0
DA:248,0
DA:249,0
DA:250,0
DA:251,0
DA:252,0
DA:253,0
DA:254,0
DA:255,0
DA:259,0
DA:260,0
DA:262,0
DA:264,0
DA:265,0
DA:266,0
DA:267,0
DA:268,0
DA:271,0
LF:158
LH:0
end_of_record
TN:
SF:/path/to/asterix/src/asterix/InputParser.cpp
FN:121,181,_ZN11InputParser21parse_next_data_blockEPKhRjjdS2_
FN:183,185,_ZN11InputParser15printDefinitionB5cxx11Ev
FN:187,189,_ZN11InputParser13filterOutItemEiNSt7__cxx1112basic_stringIcSt11char_traitsIcESaIcEEEPKc
FN:191,193,_ZN11InputParser10isFilteredEiNSt7__cxx1112basic_stringIcSt11char_traitsIcESaIcEEEPKc
FN:30,32,_ZN11InputParserC2EP17AsterixDefinition
FN:38,118,_ZN11InputParser11parsePacketEPKhjd
FNDA:0,_ZN11InputParser21parse_next_data_blockEPKhRjjdS2_
FNDA:0,_ZN11InputParser15printDefinitionB5cxx11Ev
FNDA:0,_ZN11InputParser13filterOutItemEiNSt7__cxx1112basic_stringIcSt11char_traitsIcESaIcEEEPKc
FNDA:0,_ZN11InputParser10isFilteredEiNSt7__cxx1112basic_stringIcSt11char_traitsIcESaIcEEEPKc
FNDA:0,_ZN11InputParserC2EP17AsterixDefinition
FNDA:0,_ZN11InputParser11parsePacketEPKhjd
FNF:6
FNH:0
DA:30,0
DA:31,0
DA:32,0
DA:38,0
DA:39,0
DA:40,0
DA:41,0
DA:42,0
DA:44,0
DA:45,0
DA:46,0
DA:48,0
DA:49,0
DA:50,0
DA:53,0
DA:54,0
DA:55,0
DA:56,0
DA:57,0
DA:61,0
DA:62,0
DA:66,0
DA:67,0
DA:68,0
DA:69,0
DA:73,0
DA:74,0
DA:75,0
DA:78,0
DA:79,0
DA:81,0
DA:84,0
DA:85,0
DA:103,0
DA:106,0
DA:107,0
DA:108,0
DA:111,0
DA:112,0
DA:113,0
DA:114,0
DA:117,0
DA:121,0
DA:127,0
DA:128,0
DA:129,0
DA:130,0
DA:134,0
DA:135,0
DA:139,0
DA:140,0
DA:141,0
DA:142,0
DA:146,0
DA:147,0
DA:148,0
DA:151,0
DA:152,0
DA:154,0
DA:157,0
DA:158,0
DA:176,0
DA:177,0
DA:178,0
DA:179,0
DA:180,0
DA:183,0
DA:184,0
DA:187,0
DA:188,0
DA:191,0
DA:192,0
LF:72
LH:0
end_of_record
TN:
SF:/path/to/asterix/src/asterix/Tracer.cpp
FN:34,39,_ZN6Tracer8instanceEv
FN:41,43,_ZN6TracerC2Ev
FN:45,47,_ZN6Tracer9ConfigureEPFiPKczE
FN:49,51,_ZN6Tracer9ConfigureEPFvPKczE
FN:53,57,_ZN6Tracer6DeleteEv
FN:59,73,_ZN6Tracer5ErrorEPKcz
FNDA:0,_ZN6Tracer8instanceEv
FNDA:0,_ZN6TracerC2Ev
FNDA:0,_ZN6Tracer9ConfigureEPFiPKczE
FNDA:0,_ZN6Tracer9ConfigureEPFvPKczE
FNDA:0,_ZN6Tracer6DeleteEv
FNDA:0,_ZN6Tracer5ErrorEPKcz
FNF:6
FNH:0
DA:34,0
DA:35,0
DA:36,0
DA:38,0
DA:41,0
DA:42,0
DA:43,0
DA:45,0
DA:46,0
DA:47,0
DA:49,0
DA:50,0
DA:51,0
DA:53,0
DA:54,0
DA:55,0
DA:56,0
DA:57,0
DA:59,0
DA:62,0
DA:63,0
DA:64,0
DA:65,0
DA:66,0
DA:67,0
DA:68,0
DA:69,0
DA:71,0
DA:73,0
LF:29
LH:0
end_of_record
TN:
SF:/path/to/asterix/src/asterix/UAP.cpp
FN:26,28,_ZN3UAPC2Ev
FN:30,37,_ZN3UAPD0Ev
FN:30,37,_ZN3UAPD2Ev
FN:39,43,_ZN3UAP10newUAPItemEv
FN:72,81,_ZN3UAP21getDataItemIDByUAPfrnB5cxx11Ei
FNDA:31,_ZN3UAPC2Ev
FNDA:31,_ZN3UAPD0Ev
FNDA:31,_ZN3UAPD2Ev
FNDA:95,_ZN3UAP10newUAPItemEv
FNDA:55,_ZN3UAP21getDataItemIDByUAPfrnB5cxx11Ei
FNF:5
FNH:5
DA:26,31
DA:27,31
DA:28,31
DA:30,62
DA:32,31
DA:33,126
DA:34,95
DA:35,95
DA:37,62
DA:39,95
DA:40,95
DA:41,95
DA:42,95
DA:72,55
DA:73,55
DA:74,341
DA:75,335
DA:76,335
DA:77,49
DA:80,12
LF:20
LH:20
end_of_record
TN:
SF:/path/to/asterix/src/asterix/UAPItem.cpp
FN:26,28,_ZN7UAPItemC2Ev
FN:30,46,_ZN7UAPItemC2ERKS_
FN:48,49,_ZN7UAPItemD0Ev
FN:48,49,_ZN7UAPItemD2Ev
FNDA:238,_ZN7UAPItemC2Ev
FNDA:8,_ZN7UAPItemC2ERKS_
FNDA:216,_ZN7UAPItemD0Ev
FNDA:246,_ZN7UAPItemD2Ev
FNF:4
FNH:4
DA:26,238
DA:27,238
DA:28,238
DA:30,8
DA:31,8
DA:32,8
DA:34,8
DA:35,0
DA:36,0
DA:37,0
DA:40,8
DA:41,8
DA:42,8
DA:43,8
DA:44,8
DA:45,8
DA:46,8
DA:48,462
DA:49,462
LF:19
LH:16
end_of_record
TN:
SF:/path/to/asterix/src/asterix/UAPItem.h
FN:46,46,_ZNK7UAPItem5cloneEv
FN:47,50,_ZN7UAPItem9getLengthEPKh
FN:52,55,_ZN7UAPItem7getTextERNSt7__cxx1112basic_stringIcSt11char_traitsIcESaIcEEES6_jPhl
FN:56,59,_ZN7UAPItem16printDescriptorsENSt7__cxx1112basic_stringIcSt11char_traitsIcESaIcEEE
FN:60,63,_ZN7UAPItem13filterOutItemEPKc
FN:64,67,_ZN7UAPItem10isFilteredEPKc
FN:68,71,_ZN7UAPItem14getDescriptionEPKcS1_
FNDA:4,_ZNK7UAPItem5cloneEv
FNDA:0,_ZN7UAPItem9getLengthEPKh
FNDA:0,_ZN7UAPItem7getTextERNSt7__cxx1112basic_stringIcSt11char_traitsIcESaIcEEES6_jPhl
FNDA:0,_ZN7UAPItem16printDescriptorsENSt7__cxx1112basic_stringIcSt11char_traitsIcESaIcEEE
FNDA:0,_ZN7UAPItem13filterOutItemEPKc
FNDA:0,_ZN7UAPItem10isFilteredEPKc
FNDA:0,_ZN7UAPItem14getDescriptionEPKcS1_
FNF:7
FNH:1
DA:46,4
DA:47,0
DA:48,0
DA:49,0
DA:52,0
DA:53,0
DA:54,0
DA:56,0
DA:57,0
DA:58,0
DA:60,0
DA:61,0
DA:62,0
DA:64,0
DA:65,0
DA:66,0
DA:68,0
DA:69,0
DA:70,0
LF:19
LH:1
end_of_record
TN:
SF:/path/to/asterix/src/asterix/Utils.cpp
FN:44,77,_Z6formatB5cxx11PKcz
FN:79,88,_Z5crc32PKvmj
FNDA:0,_Z6formatB5cxx11PKcz
FNDA:0,_Z5crc32PKvmj
FNF:2
FNH:0
DA:44,0
DA:51,0
DA:52,0
DA:53,0
DA:56,0
DA:57,0
DA:61,0
DA:62,0
DA:67,0
DA:69,0
DA:70,0
DA:71,0
DA:73,0
DA:74,0
DA:76,0
DA:77,0
DA:79,0
DA:80,0
DA:81,0
DA:83,0
DA:84,0
DA:87,0
LF:22
LH:0
end_of_record
TN:
SF:/path/to/asterix/src/asterix/XMLParser.cpp
FN:106,612,_ZN9XMLParser19ElementHandlerStartEPvPKcPS2_
FN:32,47,_ZN9XMLParser16CharacterHandlerEPvPKci
FN:49,63,_ZN9XMLParser12GetAttributeEPKcS1_PNSt7__cxx1112basic_stringIcSt11char_traitsIcESaIcEEE
FN:617,732,_ZN9XMLParser17ElementHandlerEndEPvPKc
FN:65,79,_ZN9XMLParser12GetAttributeEPKcS1_Pi
FN:737,755,_ZN9XMLParserC2Ev
FN:760,762,_ZN9XMLParserD0Ev
FN:760,762,_ZN9XMLParserD2Ev
FN:767,798,_ZN9XMLParser5ParseEP8_IO_FILEP17AsterixDefinitionPKc
FN:81,85,_ZN9XMLParser5ErrorEPKcS1_
FN:87,101,_ZN9XMLParser5ErrorEPKc
FNDA:0,_ZN9XMLParser19ElementHandlerStartEPvPKcPS2_
FNDA:0,_ZN9XMLParser16CharacterHandlerEPvPKci
FNDA:0,_ZN9XMLParser12GetAttributeEPKcS1_PNSt7__cxx1112basic_stringIcSt11char_traitsIcESaIcEEE
FNDA:0,_ZN9XMLParser17ElementHandlerEndEPvPKc
FNDA:0,_ZN9XMLParser12GetAttributeEPKcS1_Pi
FNDA:0,_ZN9XMLParserC2Ev
FNDA:0,_ZN9XMLParserD0Ev
FNDA:0,_ZN9XMLParserD2Ev
FNDA:0,_ZN9XMLParser5ParseEP8_IO_FILEP17AsterixDefinitionPKc
FNDA:0,_ZN9XMLParser5ErrorEPKcS1_
FNDA:0,_ZN9XMLParser5ErrorEPKc
FNF:11
FNH:0
DA:32,0
DA:33,0
DA:35,0
DA:36,0
DA:39,0
DA:41,0
DA:42,0
DA:43,0
DA:44,0
DA:45,0
DA:46,0
DA:49,0
DA:50,0
DA:51,0
DA:55,0
DA:58,0
DA:60,0
DA:62,0
DA:65,0
DA:66,0
DA:67,0
DA:71,0
DA:74,0
DA:76,0
DA:78,0
DA:81,0
DA:82,0
DA:83,0
DA:84,0
DA:85,0
DA:87,0
DA:89,0
DA:90,0
DA:91,0
DA:92,0
DA:97,0
DA:100,0
DA:101,0
DA:106,0
DA:108,0
DA:110,0
DA:114,0
DA:116,0
DA:119,0
DA:120,0
DA:122,0
DA:123,0
DA:124,0
DA:125,0
DA:127,0
DA:128,0
DA:130,0
DA:132,0
DA:133,0
DA:135,0
DA:136,0
DA:138,0
DA:139,0
DA:140,0
DA:141,0
DA:143,0
DA:146,0
DA:148,0
DA:149,0
DA:151,0
DA:152,0
DA:153,0
DA:154,0
DA:156,0
DA:157,0
DA:158,0
DA:159,0
DA:160,0
DA:162,0
DA:164,0
DA:167,0
DA:171,0
DA:173,0
DA:175,0
DA:177,0
DA:178,0
DA:179,0
DA:180,0
DA:181,0
DA:183,0
DA:186,0
DA:189,0
DA:190,0
DA:192,0
DA:193,0
DA:194,0
DA:195,0
DA:198,0
DA:199,0
DA:200,0
DA:203,0
DA:205,0
DA:206,0
DA:207,0
DA:208,0
DA:211,0
DA:212,0
DA:213,0
DA:214,0
DA:215,0
DA:216,0
DA:218,0
DA:219,0
DA:220,0
DA:221,0
DA:223,0
DA:224,0
DA:225,0
DA:226,0
DA:227,0
DA:229,0
DA:231,0
DA:232,0
DA:234,0
DA:235,0
DA:237,0
DA:238,0
DA:240,0
DA:241,0
DA:243,0
DA:244,0
DA:245,0
DA:246,0
DA:249,0
DA:251,0
DA:252,0
DA:253,0
DA:254,0
DA:255,0
DA:256,0
DA:258,0
DA:259,0
DA:260,0
DA:261,0
DA:263,0
DA:264,0
DA:265,0
DA:266,0
DA:267,0
DA:269,0
DA:271,0
DA:272,0
DA:274,0
DA:275,0
DA:277,0
DA:278,0
DA:280,0
DA:281,0
DA:284,0
DA:285,0
DA:286,0
DA:288,0
DA:289,0
DA:291,0
DA:294,0
DA:297,0
DA:298,0
DA:299,0
DA:300,0
DA:303,0
DA:305,0
DA:306,0
DA:307,0
DA:308,0
DA:309,0
DA:311,0
DA:313,0
DA:314,0
DA:316,0
DA:317,0
DA:319,0
DA:320,0
DA:322,0
DA:323,0
DA:325,0
DA:326,0
DA:327,0
DA:328,0
DA:331,0
DA:333,0
DA:334,0
DA:335,0
DA:336,0
DA:337,0
DA:339,0
DA:340,0
DA:341,0
DA:342,0
DA:344,0
DA:346,0
DA:347,0
DA:349,0
DA:350,0
DA:352,0
DA:353,0
DA:355,0
DA:356,0
DA:358,0
DA:359,0
DA:360,0
DA:361,0
DA:364,0
DA:366,0
DA:367,0
DA:368,0
DA:369,0
DA:370,0
DA:371,0
DA:373,0
DA:375,0
DA:376,0
DA:378,0
DA:379,0
DA:381,0
DA:382,0
DA:384,0
DA:385,0
DA:387,0
DA:388,0
DA:389,0
DA:390,0
DA:393,0
DA:395,0
DA:396,0
DA:397,0
DA:398,0
DA:399,0
DA:401,0
DA:402,0
DA:403,0
DA:404,0
DA:406,0
DA:408,0
DA:409,0
DA:411,0
DA:412,0
DA:414,0
DA:415,0
DA:417,0
DA:418,0
DA:420,0
DA:421,0
DA:422,0
DA:423,0
DA:424,0
DA:425,0
DA:426,0
DA:429,0
DA:430,0
DA:432,0
DA:433,0
DA:435,0
DA:436,0
DA:438,0
DA:440,0
DA:441,0
DA:442,0
DA:443,0
DA:446,0
DA:448,0
DA:449,0
DA:451,0
DA:452,0
DA:453,0
DA:454,0
DA:457,0
DA:459,0
DA:460,0
DA:462,0
DA:463,0
DA:464,0
DA:465,0
DA:468,0
DA:470,0
DA:472,0
DA:473,0
DA:474,0
DA:475,0
DA:476,0
DA:477,0
DA:478,0
DA:479,0
DA:480,0
DA:481,0
DA:482,0
DA:483,0
DA:485,0
DA:487,0
DA:488,0
DA:490,0
DA:493,0
DA:494,0
DA:496,0
DA:497,0
DA:499,0
DA:500,0
DA:502,0
DA:504,0
DA:505,0
DA:506,0
DA:509,0
DA:510,0
DA:511,0
DA:512,0
DA:513,0
DA:530,0
DA:531,0
DA:534,0
DA:535,0
DA:536,0
DA:539,0
DA:540,0
DA:541,0
DA:542,0
DA:543,0
DA:544,0
DA:545,0
DA:546,0
DA:547,0
DA:551,0
DA:552,0
DA:553,0
DA:554,0
DA:555,0
DA:558,0
DA:559,0
DA:560,0
DA:561,0
DA:562,0
DA:563,0
DA:566,0
DA:568,0
DA:569,0
DA:570,0
DA:571,0
DA:572,0
DA:573,0
DA:574,0
DA:576,0
DA:579,0
DA:580,0
DA:581,0
DA:582,0
DA:584,0
DA:585,0
DA:586,0
DA:589,0
DA:591,0
DA:592,0
DA:593,0
DA:594,0
DA:595,0
DA:596,0
DA:598,0
DA:599,0
DA:601,0
DA:602,0
DA:604,0
DA:608,0
DA:610,0
DA:617,0
DA:618,0
DA:620,0
DA:624,0
DA:626,0
DA:629,0
DA:630,0
DA:632,0
DA:633,0
DA:634,0
DA:635,0
DA:637,0
DA:639,0
DA:640,0
DA:641,0
DA:643,0
DA:645,0
DA:646,0
DA:670,0
DA:672,0
DA:674,0
DA:675,0
DA:676,0
DA:678,0
DA:680,0
DA:681,0
DA:682,0
DA:684,0
DA:686,0
DA:687,0
DA:688,0
DA:690,0
DA:692,0
DA:693,0
DA:694,0
DA:696,0
DA:698,0
DA:699,0
DA:700,0
DA:702,0
DA:704,0
DA:705,0
DA:706,0
DA:708,0
DA:710,0
DA:711,0
DA:712,0
DA:714,0
DA:716,0
DA:717,0
DA:718,0
DA:720,0
DA:722,0
DA:723,0
DA:724,0
DA:726,0
DA:730,0
DA:731,0
DA:737,0
DA:738,0
DA:739,0
DA:740,0
DA:741,0
DA:745,0
DA:749,0
DA:751,0
DA:753,0
DA:755,0
DA:760,0
DA:761,0
DA:762,0
DA:767,0
DA:768,0
DA:769,0
DA:775,0
DA:776,0
DA:780,0
DA:782,0
DA:784,0
DA:786,0
DA:787,0
DA:788,0
DA:789,0
DA:790,0
DA:791,0
DA:793,0
DA:794,0
DA:795,0
DA:797,0
LF:454
LH:0
end_of_record
TN:
SF:/path/to/asterix/src/asterix/XMLParser.h
FN:68,68,_ZN9XMLParser8GetCDataEPNSt7__cxx1112basic_stringIcSt11char_traitsIcESaIcEEE
FN:70,73,_ZN9XMLParser8GetCDataEPi
FNDA:0,_ZN9XMLParser8GetCDataEPNSt7__cxx1112basic_stringIcSt11char_traitsIcESaIcEEE
FNDA:0,_ZN9XMLParser8GetCDataEPi
FNF:2
FNH:0
DA:68,0
DA:70,0
DA:71,0
DA:72,0
DA:73,0
LF:5
LH:0
end_of_record
TN:
SF:/usr/include/c++/13/bits/alloc_traits.h
FNF:0
FNH:0
DA:482,95
DA:517,95
DA:538,95
DA:542,95
DA:562,95
DA:588,408
LF:6
LH:6
end_of_record
TN:
SF:/usr/include/c++/13/bits/allocated_ptr.h
FN:53,55,_ZNSt15__allocated_ptrISaISt10_List_nodeIP10DataRecordEEEC2ERS4_PS3_
FN:53,55,_ZNSt15__allocated_ptrISaISt10_List_nodeIP14DataItemFormatEEEC2ERS4_PS3_
FN:53,55,_ZNSt15__allocated_ptrISaISt10_List_nodeIP19DataItemDescriptionEEEC2ERS4_PS3_
FN:53,55,_ZNSt15__allocated_ptrISaISt10_List_nodeIP3UAPEEEC2ERS4_PS3_
FN:53,55,_ZNSt15__allocated_ptrISaISt10_List_nodeIP7UAPItemEEEC2ERS4_PS3_
FN:53,55,_ZNSt15__allocated_ptrISaISt10_List_nodeIP8DataItemEEEC2ERS4_PS3_
FN:53,55,_ZNSt15__allocated_ptrISaISt10_List_nodeIP9BitsValueEEEC2ERS4_PS3_
FN:53,55,_ZNSt15__allocated_ptrISaISt10_List_nodeIP9DataBlockEEEC2ERS4_PS3_
FN:71,75,_ZNSt15__allocated_ptrISaISt10_List_nodeIP10DataRecordEEED2Ev
FN:71,75,_ZNSt15__allocated_ptrISaISt10_List_nodeIP14DataItemFormatEEED2Ev
FN:71,75,_ZNSt15__allocated_ptrISaISt10_List_nodeIP19DataItemDescriptionEEED2Ev
FN:71,75,_ZNSt15__allocated_ptrISaISt10_List_nodeIP3UAPEEED2Ev
FN:71,75,_ZNSt15__allocated_ptrISaISt10_List_nodeIP7UAPItemEEED2Ev
FN:71,75,_ZNSt15__allocated_ptrISaISt10_List_nodeIP8DataItemEEED2Ev
FN:71,75,_ZNSt15__allocated_ptrISaISt10_List_nodeIP9BitsValueEEED2Ev
FN:71,75,_ZNSt15__allocated_ptrISaISt10_List_nodeIP9DataBlockEEED2Ev
FN:79,83,_ZNSt15__allocated_ptrISaISt10_List_nodeIP10DataRecordEEEaSEDn
FN:79,83,_ZNSt15__allocated_ptrISaISt10_List_nodeIP14DataItemFormatEEEaSEDn
FN:79,83,_ZNSt15__allocated_ptrISaISt10_List_nodeIP19DataItemDescriptionEEEaSEDn
FN:79,83,_ZNSt15__allocated_ptrISaISt10_List_nodeIP3UAPEEEaSEDn
FN:79,83,_ZNSt15__allocated_ptrISaISt10_List_nodeIP7UAPItemEEEaSEDn
FN:79,83,_ZNSt15__allocated_ptrISaISt10_List_nodeIP8DataItemEEEaSEDn
FN:79,83,_ZNSt15__allocated_ptrISaISt10_List_nodeIP9BitsValueEEEaSEDn
FN:79,83,_ZNSt15__allocated_ptrISaISt10_List_nodeIP9DataBlockEEEaSEDn
FNDA:0,_ZNSt15__allocated_ptrISaISt10_List_nodeIP10DataRecordEEEC2ERS4_PS3_
FNDA:0,_ZNSt15__allocated_ptrISaISt10_List_nodeIP14DataItemFormatEEEC2ERS4_PS3_
FNDA:0,_ZNSt15__allocated_ptrISaISt10_List_nodeIP19DataItemDescriptionEEEC2ERS4_PS3_
FNDA:0,_ZNSt15__allocated_ptrISaISt10_List_nodeIP3UAPEEEC2ERS4_PS3_
FNDA:95,_ZNSt15__allocated_ptrISaISt10_List_nodeIP7UAPItemEEEC2ERS4_PS3_
FNDA:0,_ZNSt15__allocated_ptrISaISt10_List_nodeIP8DataItemEEEC2ERS4_PS3_
FNDA:0,_ZNSt15__allocated_ptrISaISt10_List_nodeIP9BitsValueEEEC2ERS4_PS3_
FNDA:0,_ZNSt15__allocated_ptrISaISt10_List_nodeIP9DataBlockEEEC2ERS4_PS3_
FNDA:0,_ZNSt15__allocated_ptrISaISt10_List_nodeIP10DataRecordEEED2Ev
FNDA:0,_ZNSt15__allocated_ptrISaISt10_List_nodeIP14DataItemFormatEEED2Ev
FNDA:0,_ZNSt15__allocated_ptrISaISt10_List_nodeIP19DataItemDescriptionEEED2Ev
FNDA:0,_ZNSt15__allocated_ptrISaISt10_List_nodeIP3UAPEEED2Ev
FNDA:95,_ZNSt15__allocated_ptrISaISt10_List_nodeIP7UAPItemEEED2Ev
FNDA:0,_ZNSt15__allocated_ptrISaISt10_List_nodeIP8DataItemEEED2Ev
FNDA:0,_ZNSt15__allocated_ptrISaISt10_List_nodeIP9BitsValueEEED2Ev
FNDA:0,_ZNSt15__allocated_ptrISaISt10_List_nodeIP9DataBlockEEED2Ev
FNDA:0,_ZNSt15__allocated_ptrISaISt10_List_nodeIP10DataRecordEEEaSEDn
FNDA:0,_ZNSt15__allocated_ptrISaISt10_List_nodeIP14DataItemFormatEEEaSEDn
FNDA:0,_ZNSt15__allocated_ptrISaISt10_List_nodeIP19DataItemDescriptionEEEaSEDn
FNDA:0,_ZNSt15__allocated_ptrISaISt10_List_nodeIP3UAPEEEaSEDn
FNDA:95,_ZNSt15__allocated_ptrISaISt10_List_nodeIP7UAPItemEEEaSEDn
FNDA:0,_ZNSt15__allocated_ptrISaISt10_List_nodeIP8DataItemEEEaSEDn
FNDA:0,_ZNSt15__allocated_ptrISaISt10_List_nodeIP9BitsValueEEEaSEDn
FNDA:0,_ZNSt15__allocated_ptrISaISt10_List_nodeIP9DataBlockEEEaSEDn
FNF:24
FNH:3
DA:53,95
DA:54,95
DA:55,95
DA:71,95
DA:73,95
DA:74,0
DA:75,95
DA:79,95
DA:81,95
DA:82,95
LF:10
LH:9
end_of_record
TN:
SF:/usr/include/c++/13/bits/allocator.h
FNF:0
FNH:0
DA:163,283
DA:168,408
DA:184,414
LF:3
LH:3
end_of_record
TN:
SF:/usr/include/c++/13/bits/basic_string.h
FN:3528,3541,_ZSt12__str_concatINSt7__cxx1112basic_stringIcSt11char_traitsIcESaIcEEEET_PKNS6_10value_typeENS6_9size_typeES9_SA_RKNS6_14allocator_typeE
FN:3553,3560,_ZStplIcSt11char_traitsIcESaIcEENSt7__cxx1112basic_stringIT_T0_T1_EERKS8_SA_
FN:3571,3579,_ZStplIcSt11char_traitsIcESaIcEENSt7__cxx1112basic_stringIT_T0_T1_EEPKS5_RKS8_
FN:3688,3690,_ZStplIcSt11char_traitsIcESaIcEENSt7__cxx1112basic_stringIT_T0_T1_EEOS8_PKS5_
FN:3710,3716,_ZSteqIcSt11char_traitsIcESaIcEEbRKNSt7__cxx1112basic_stringIT_T0_T1_EESA_
FN:641,650,_ZNSt7__cxx1112basic_stringIcSt11char_traitsIcESaIcEEC2IS3_EEPKcRKS3_
FN:664,666,_ZNSt7__cxx1112basic_stringIcSt11char_traitsIcESaIcEEC2IS3_EEmcRKS3_
FNDA:408,_ZSt12__str_concatINSt7__cxx1112basic_stringIcSt11char_traitsIcESaIcEEEET_PKNS6_10value_typeENS6_9size_typeES9_SA_RKNS6_14allocator_typeE
FNDA:0,_ZStplIcSt11char_traitsIcESaIcEENSt7__cxx1112basic_stringIT_T0_T1_EERKS8_SA_
FNDA:0,_ZStplIcSt11char_traitsIcESaIcEENSt7__cxx1112basic_stringIT_T0_T1_EEPKS5_RKS8_
FNDA:140,_ZStplIcSt11char_traitsIcESaIcEENSt7__cxx1112basic_stringIT_T0_T1_EEOS8_PKS5_
FNDA:0,_ZSteqIcSt11char_traitsIcESaIcEEbRKNSt7__cxx1112basic_stringIT_T0_T1_EESA_
FNDA:0,_ZNSt7__cxx1112basic_stringIcSt11char_traitsIcESaIcEEC2IS3_EEPKcRKS3_
FNDA:0,_ZNSt7__cxx1112basic_stringIcSt11char_traitsIcESaIcEEC2IS3_EEmcRKS3_
FNF:7
FNH:2
DA:355,0
DA:641,0
DA:642,0
DA:645,0
DA:646,0
DA:648,0
DA:649,0
DA:650,0
DA:664,0
DA:665,0
DA:666,0
DA:3528,408
DA:3536,408
DA:3537,408
DA:3538,408
DA:3539,408
DA:3540,408
DA:3541,0
DA:3553,0
DA:3559,0
DA:3571,0
DA:3578,0
DA:3688,140
DA:3690,140
DA:3710,0
DA:3714,0
DA:3715,0
LF:27
LH:8
end_of_record
TN:
SF:/usr/include/c++/13/bits/basic_string.tcc
FN:221,252,_ZNSt7__cxx1112basic_stringIcSt11char_traitsIcESaIcEE12_M_constructIPKcEEvT_S8_St20forward_iterator_tag
FN:221,252,_ZNSt7__cxx1112basic_stringIcSt11char_traitsIcESaIcEE12_M_constructIPcEEvT_S7_St20forward_iterator_tag
FN:239,239,_ZZNSt7__cxx1112basic_stringIcSt11char_traitsIcESaIcEE12_M_constructIPKcEEvT_S8_St20forward_iterator_tagEN6_GuardC2EPS4_
FN:239,239,_ZZNSt7__cxx1112basic_stringIcSt11char_traitsIcESaIcEE12_M_constructIPcEEvT_S7_St20forward_iterator_tagEN6_GuardC2EPS4_
FN:242,242,_ZZNSt7__cxx1112basic_stringIcSt11char_traitsIcESaIcEE12_M_constructIPKcEEvT_S8_St20forward_iterator_tagEN6_GuardD2Ev
FN:242,242,_ZZNSt7__cxx1112basic_stringIcSt11char_traitsIcESaIcEE12_M_constructIPcEEvT_S7_St20forward_iterator_tagEN6_GuardD2Ev
FNDA:0,_ZNSt7__cxx1112basic_stringIcSt11char_traitsIcESaIcEE12_M_constructIPKcEEvT_S8_St20forward_iterator_tag
FNDA:0,_ZNSt7__cxx1112basic_stringIcSt11char_traitsIcESaIcEE12_M_constructIPcEEvT_S7_St20forward_iterator_tag
FNDA:0,_ZZNSt7__cxx1112basic_stringIcSt11char_traitsIcESaIcEE12_M_constructIPKcEEvT_S8_St20forward_iterator_tagEN6_GuardC2EPS4_
FNDA:0,_ZZNSt7__cxx1112basic_stringIcSt11char_traitsIcESaIcEE12_M_constructIPcEEvT_S7_St20forward_iterator_tagEN6_GuardC2EPS4_
FNDA:0,_ZZNSt7__cxx1112basic_stringIcSt11char_traitsIcESaIcEE12_M_constructIPKcEEvT_S8_St20forward_iterator_tagEN6_GuardD2Ev
FNDA:0,_ZZNSt7__cxx1112basic_stringIcSt11char_traitsIcESaIcEE12_M_constructIPcEEvT_S7_St20forward_iterator_tagEN6_GuardD2Ev
FNF:6
FNH:0
DA:221,0
DA:225,0
DA:227,0
DA:229,0
DA:230,0
DA:239,0
DA:242,0
DA:245,0
DA:247,0
DA:249,0
DA:251,0
DA:252,0
LF:12
LH:0
end_of_record
TN:
SF:/usr/include/c++/13/bits/char_traits.h
FN:136,137,_ZN9__gnu_cxx11char_traitsIcE2eqERKcS3_
FN:199,206,_ZN9__gnu_cxx11char_traitsIcE6lengthEPKc
FN:366,371,_ZNSt11char_traitsIcE2ltERKcS2_
FN:374,390,_ZNSt11char_traitsIcE7compareEPKcS2_m
FN:393,400,_ZNSt11char_traitsIcE6lengthEPKc
FN:427,436,_ZNSt11char_traitsIcE4copyEPcPKcm
FNDA:0,_ZN9__gnu_cxx11char_traitsIcE2eqERKcS3_
FNDA:0,_ZN9__gnu_cxx11char_traitsIcE6lengthEPKc
FNDA:0,_ZNSt11char_traitsIcE2ltERKcS2_
FNDA:6,_ZNSt11char_traitsIcE7compareEPKcS2_m
FNDA:0,_ZNSt11char_traitsIcE6lengthEPKc
FNDA:0,_ZNSt11char_traitsIcE4copyEPcPKcm
FNF:6
FNH:1
DA:136,0
DA:137,0
DA:199,0
DA:202,0
DA:203,0
DA:204,0
DA:205,0
DA:366,0
DA:369,0
DA:370,0
DA:374,6
DA:376,6
DA:377,6
DA:379,0
DA:381,0
DA:382,0
DA:383,0
DA:384,0
DA:385,0
DA:386,0
DA:389,0
DA:393,0
DA:396,0
DA:397,0
DA:399,0
DA:427,0
DA:429,0
DA:430,0
DA:435,0
LF:29
LH:3
end_of_record
TN:
SF:/usr/include/c++/13/bits/list.tcc
FN:150,160,_ZNSt7__cxx114listIP10DataRecordSaIS2_EE5eraseESt20_List_const_iteratorIS2_E
FN:150,160,_ZNSt7__cxx114listIP14DataItemFormatSaIS2_EE5eraseESt20_List_const_iteratorIS2_E
FN:150,160,_ZNSt7__cxx114listIP19DataItemDescriptionSaIS2_EE5eraseESt20_List_const_iteratorIS2_E
FN:150,160,_ZNSt7__cxx114listIP3UAPSaIS2_EE5eraseESt20_List_const_iteratorIS2_E
FN:150,160,_ZNSt7__cxx114listIP7UAPItemSaIS2_EE5eraseESt20_List_const_iteratorIS2_E
FN:150,160,_ZNSt7__cxx114listIP8DataItemSaIS2_EE5eraseESt20_List_const_iteratorIS2_E
FN:150,160,_ZNSt7__cxx114listIP9BitsValueSaIS2_EE5eraseESt20_List_const_iteratorIS2_E
FN:150,160,_ZNSt7__cxx114listIP9DataBlockSaIS2_EE5eraseESt20_List_const_iteratorIS2_E
FN:66,83,_ZNSt7__cxx1110_List_baseIP10DataRecordSaIS2_EE8_M_clearEv
FN:66,83,_ZNSt7__cxx1110_List_baseIP14DataItemFormatSaIS2_EE8_M_clearEv
FN:66,83,_ZNSt7__cxx1110_List_baseIP19DataItemDescriptionSaIS2_EE8_M_clearEv
FN:66,83,_ZNSt7__cxx1110_List_baseIP3UAPSaIS2_EE8_M_clearEv
FN:66,83,_ZNSt7__cxx1110_List_baseIP7UAPItemSaIS2_EE8_M_clearEv
FN:66,83,_ZNSt7__cxx1110_List_baseIP8DataItemSaIS2_EE8_M_clearEv
FN:66,83,_ZNSt7__cxx1110_List_baseIP9BitsValueSaIS2_EE8_M_clearEv
FN:66,83,_ZNSt7__cxx1110_List_baseIP9DataBlockSaIS2_EE8_M_clearEv
FNDA:0,_ZNSt7__cxx114listIP10DataRecordSaIS2_EE5eraseESt20_List_const_iteratorIS2_E
FNDA:0,_ZNSt7__cxx114listIP14DataItemFormatSaIS2_EE5eraseESt20_List_const_iteratorIS2_E
FNDA:0,_ZNSt7__cxx114listIP19DataItemDescriptionSaIS2_EE5eraseESt20_List_const_iteratorIS2_E
FNDA:0,_ZNSt7__cxx114listIP3UAPSaIS2_EE5eraseESt20_List_const_iteratorIS2_E
FNDA:95,_ZNSt7__cxx114listIP7UAPItemSaIS2_EE5eraseESt20_List_const_iteratorIS2_E
FNDA:0,_ZNSt7__cxx114listIP8DataItemSaIS2_EE5eraseESt20_List_const_iteratorIS2_E
FNDA:0,_ZNSt7__cxx114listIP9BitsValueSaIS2_EE5eraseESt20_List_const_iteratorIS2_E
FNDA:0,_ZNSt7__cxx114listIP9DataBlockSaIS2_EE5eraseESt20_List_const_iteratorIS2_E
FNDA:0,_ZNSt7__cxx1110_List_baseIP10DataRecordSaIS2_EE8_M_clearEv
FNDA:246,_ZNSt7__cxx1110_List_baseIP14DataItemFormatSaIS2_EE8_M_clearEv
FNDA:0,_ZNSt7__cxx1110_List_baseIP19DataItemDescriptionSaIS2_EE8_M_clearEv
FNDA:0,_ZNSt7__cxx1110_List_baseIP3UAPSaIS2_EE8_M_clearEv
FNDA:31,_ZNSt7__cxx1110_List_baseIP7UAPItemSaIS2_EE8_M_clearEv
FNDA:0,_ZNSt7__cxx1110_List_baseIP8DataItemSaIS2_EE8_M_clearEv
FNDA:0,_ZNSt7__cxx1110_List_baseIP9BitsValueSaIS2_EE8_M_clearEv
FNDA:0,_ZNSt7__cxx1110_List_baseIP9DataBlockSaIS2_EE8_M_clearEv
FNF:16
FNH:3
DA:66,277
DA:70,277
DA:71,277
DA:73,0
DA:74,0
DA:75,0
DA:77,0
DA:81,0
DA:83,277
DA:150,95
DA:157,95
DA:158,95
DA:159,95
LF:13
LH:8
end_of_record
TN:
SF:/usr/include/c++/13/bits/move.h
FN:51,52,_ZSt11__addressofISaISt10_List_nodeIP10DataRecordEEEPT_RS5_
FN:51,52,_ZSt11__addressofISaISt10_List_nodeIP14DataItemFormatEEEPT_RS5_
FN:51,52,_ZSt11__addressofISaISt10_List_nodeIP19DataItemDescriptionEEEPT_RS5_
FN:51,52,_ZSt11__addressofISaISt10_List_nodeIP3UAPEEEPT_RS5_
FN:51,52,_ZSt11__addressofISaISt10_List_nodeIP7UAPItemEEEPT_RS5_
FN:51,52,_ZSt11__addressofISaISt10_List_nodeIP8DataItemEEEPT_RS5_
FN:51,52,_ZSt11__addressofISaISt10_List_nodeIP9BitsValueEEEPT_RS5_
FN:51,52,_ZSt11__addressofISaISt10_List_nodeIP9DataBlockEEEPT_RS5_
FN:70,71,_ZSt7forwardIP14DataItemFormatEOT_RNSt16remove_referenceIS2_E4typeE
FN:70,71,_ZSt7forwardIP9BitsValueEOT_RNSt16remove_referenceIS2_E4typeE
FN:70,71,_ZSt7forwardIRKP10DataRecordEOT_RNSt16remove_referenceIS4_E4typeE
FN:70,71,_ZSt7forwardIRKP14DataItemFormatEOT_RNSt16remove_referenceIS4_E4typeE
FN:70,71,_ZSt7forwardIRKP19DataItemDescriptionEOT_RNSt16remove_referenceIS4_E4typeE
FN:70,71,_ZSt7forwardIRKP3UAPEOT_RNSt16remove_referenceIS4_E4typeE
FN:70,71,_ZSt7forwardIRKP7UAPItemEOT_RNSt16remove_referenceIS4_E4typeE
FN:70,71,_ZSt7forwardIRKP8DataItemEOT_RNSt16remove_referenceIS4_E4typeE
FN:70,71,_ZSt7forwardIRKP9BitsValueEOT_RNSt16remove_referenceIS4_E4typeE
FN:70,71,_ZSt7forwardIRKP9DataBlockEOT_RNSt16remove_referenceIS4_E4typeE
FN:97,98,_ZSt4moveIRNSt7__cxx1112basic_stringIcSt11char_traitsIcESaIcEEEEONSt16remove_referenceIT_E4typeEOS8_
FN:97,98,_ZSt4moveIRP14DataItemFormatEONSt16remove_referenceIT_E4typeEOS4_
FN:97,98,_ZSt4moveIRP9BitsValueEONSt16remove_referenceIT_E4typeEOS4_
FN:97,98,_ZSt4moveIRSaIcEEONSt16remove_referenceIT_E4typeEOS3_
FNDA:0,_ZSt11__addressofISaISt10_List_nodeIP10DataRecordEEEPT_RS5_
FNDA:0,_ZSt11__addressofISaISt10_List_nodeIP14DataItemFormatEEEPT_RS5_
FNDA:0,_ZSt11__addressofISaISt10_List_nodeIP19DataItemDescriptionEEEPT_RS5_
FNDA:0,_ZSt11__addressofISaISt10_List_nodeIP3UAPEEEPT_RS5_
FNDA:95,_ZSt11__addressofISaISt10_List_nodeIP7UAPItemEEEPT_RS5_
FNDA:0,_ZSt11__addressofISaISt10_List_nodeIP8DataItemEEEPT_RS5_
FNDA:0,_ZSt11__addressofISaISt10_List_nodeIP9BitsValueEEEPT_RS5_
FNDA:0,_ZSt11__addressofISaISt10_List_nodeIP9DataBlockEEEPT_RS5_
FNDA:0,_ZSt7forwardIP14DataItemFormatEOT_RNSt16remove_referenceIS2_E4typeE
FNDA:0,_ZSt7forwardIP9BitsValueEOT_RNSt16remove_referenceIS2_E4typeE
FNDA:0,_ZSt7forwardIRKP10DataRecordEOT_RNSt16remove_referenceIS4_E4typeE
FNDA:0,_ZSt7forwardIRKP14DataItemFormatEOT_RNSt16remove_referenceIS4_E4typeE
FNDA:0,_ZSt7forwardIRKP19DataItemDescriptionEOT_RNSt16remove_referenceIS4_E4typeE
FNDA:0,_ZSt7forwardIRKP3UAPEOT_RNSt16remove_referenceIS4_E4typeE
FNDA:380,_ZSt7forwardIRKP7UAPItemEOT_RNSt16remove_referenceIS4_E4typeE
FNDA:0,_ZSt7forwardIRKP8DataItemEOT_RNSt16remove_referenceIS4_E4typeE
FNDA:0,_ZSt7forwardIRKP9BitsValueEOT_RNSt16remove_referenceIS4_E4typeE
FNDA:0,_ZSt7forwardIRKP9DataBlockEOT_RNSt16remove_referenceIS4_E4typeE
FNDA:630,_ZSt4moveIRNSt7__cxx1112basic_stringIcSt11char_traitsIcESaIcEEEEONSt16remove_referenceIT_E4typeEOS8_
FNDA:0,_ZSt4moveIRP14DataItemFormatEONSt16remove_referenceIT_E4typeEOS4_
FNDA:0,_ZSt4moveIRP9BitsValueEONSt16remove_referenceIT_E4typeEOS4_
FNDA:0,_ZSt4moveIRSaIcEEONSt16remove_referenceIT_E4typeEOS3_
FNF:22
FNH:3
DA:51,95
DA:52,95
DA:70,380
DA:71,380
DA:97,630
DA:98,630
LF:6
LH:6
end_of_record
TN:
SF:/usr/include/c++/13/bits/new_allocator.h
FN:104,104,_ZNSt15__new_allocatorISt10_List_nodeIP10DataRecordEED2Ev
FN:104,104,_ZNSt15__new_allocatorISt10_List_nodeIP14DataItemFormatEED2Ev
FN:104,104,_ZNSt15__new_allocatorISt10_List_nodeIP19DataItemDescriptionEED2Ev
FN:104,104,_ZNSt15__new_allocatorISt10_List_nodeIP3UAPEED2Ev
FN:104,104,_ZNSt15__new_allocatorISt10_List_nodeIP7UAPItemEED2Ev
FN:104,104,_ZNSt15__new_allocatorISt10_List_nodeIP8DataItemEED2Ev
FN:104,104,_ZNSt15__new_allocatorISt10_List_nodeIP9BitsValueEED2Ev
FN:104,104,_ZNSt15__new_allocatorISt10_List_nodeIP9DataBlockEED2Ev
FN:104,104,_ZNSt15__new_allocatorIcED2Ev
FN:126,152,_ZNSt15__new_allocatorISt10_List_nodeIP10DataRecordEE8allocateEmPKv
FN:126,152,_ZNSt15__new_allocatorISt10_List_nodeIP14DataItemFormatEE8allocateEmPKv
FN:126,152,_ZNSt15__new_allocatorISt10_List_nodeIP19DataItemDescriptionEE8allocateEmPKv
FN:126,152,_ZNSt15__new_allocatorISt10_List_nodeIP3UAPEE8allocateEmPKv
FN:126,152,_ZNSt15__new_allocatorISt10_List_nodeIP7UAPItemEE8allocateEmPKv
FN:126,152,_ZNSt15__new_allocatorISt10_List_nodeIP8DataItemEE8allocateEmPKv
FN:126,152,_ZNSt15__new_allocatorISt10_List_nodeIP9BitsValueEE8allocateEmPKv
FN:126,152,_ZNSt15__new_allocatorISt10_List_nodeIP9DataBlockEE8allocateEmPKv
FN:156,173,_ZNSt15__new_allocatorISt10_List_nodeIP10DataRecordEE10deallocateEPS3_m
FN:156,173,_ZNSt15__new_allocatorISt10_List_nodeIP14DataItemFormatEE10deallocateEPS3_m
FN:156,173,_ZNSt15__new_allocatorISt10_List_nodeIP19DataItemDescriptionEE10deallocateEPS3_m
FN:156,173,_ZNSt15__new_allocatorISt10_List_nodeIP3UAPEE10deallocateEPS3_m
FN:156,173,_ZNSt15__new_allocatorISt10_List_nodeIP7UAPItemEE10deallocateEPS3_m
FN:156,173,_ZNSt15__new_allocatorISt10_List_nodeIP8DataItemEE10deallocateEPS3_m
FN:156,173,_ZNSt15__new_allocatorISt10_List_nodeIP9BitsValueEE10deallocateEPS3_m
FN:156,173,_ZNSt15__new_allocatorISt10_List_nodeIP9DataBlockEE10deallocateEPS3_m
FNDA:0,_ZNSt15__new_allocatorISt10_List_nodeIP10DataRecordEED2Ev
FNDA:246,_ZNSt15__new_allocatorISt10_List_nodeIP14DataItemFormatEED2Ev
FNDA:0,_ZNSt15__new_allocatorISt10_List_nodeIP19DataItemDescriptionEED2Ev
FNDA:0,_ZNSt15__new_allocatorISt10_List_nodeIP3UAPEED2Ev
FNDA:31,_ZNSt15__new_allocatorISt10_List_nodeIP7UAPItemEED2Ev
FNDA:0,_ZNSt15__new_allocatorISt10_List_nodeIP8DataItemEED2Ev
FNDA:0,_ZNSt15__new_allocatorISt10_List_nodeIP9BitsValueEED2Ev
FNDA:0,_ZNSt15__new_allocatorISt10_List_nodeIP9DataBlockEED2Ev
FNDA:0,_ZNSt15__new_allocatorIcED2Ev
FNDA:0,_ZNSt15__new_allocatorISt10_List_nodeIP10DataRecordEE8allocateEmPKv
FNDA:0,_ZNSt15__new_allocatorISt10_List_nodeIP14DataItemFormatEE8allocateEmPKv
FNDA:0,_ZNSt15__new_allocatorISt10_List_nodeIP19DataItemDescriptionEE8allocateEmPKv
FNDA:0,_ZNSt15__new_allocatorISt10_List_nodeIP3UAPEE8allocateEmPKv
FNDA:95,_ZNSt15__new_allocatorISt10_List_nodeIP7UAPItemEE8allocateEmPKv
FNDA:0,_ZNSt15__new_allocatorISt10_List_nodeIP8DataItemEE8allocateEmPKv
FNDA:0,_ZNSt15__new_allocatorISt10_List_nodeIP9BitsValueEE8allocateEmPKv
FNDA:0,_ZNSt15__new_allocatorISt10_List_nodeIP9DataBlockEE8allocateEmPKv
FNDA:0,_ZNSt15__new_allocatorISt10_List_nodeIP10DataRecordEE10deallocateEPS3_m
FNDA:0,_ZNSt15__new_allocatorISt10_List_nodeIP14DataItemFormatEE10deallocateEPS3_m
FNDA:0,_ZNSt15__new_allocatorISt10_List_nodeIP19DataItemDescriptionEE10deallocateEPS3_m
FNDA:0,_ZNSt15__new_allocatorISt10_List_nodeIP3UAPEE10deallocateEPS3_m
FNDA:95,_ZNSt15__new_allocatorISt10_List_nodeIP7UAPItemEE10deallocateEPS3_m
FNDA:0,_ZNSt15__new_allocatorISt10_List_nodeIP8DataItemEE10deallocateEPS3_m
FNDA:0,_ZNSt15__new_allocatorISt10_List_nodeIP9BitsValueEE10deallocateEPS3_m
FNDA:0,_ZNSt15__new_allocatorISt10_List_nodeIP9DataBlockEE10deallocateEPS3_m
FNF:25
FNH:4
DA:88,283
DA:92,408
DA:104,277
DA:126,95
DA:134,95
DA:138,0
DA:139,0
DA:140,0
DA:151,95
DA:156,95
DA:172,95
DA:191,95
DA:198,95
DA:233,95
LF:14
LH:11
end_of_record
TN:
SF:/usr/include/c++/13/bits/stl_iterator_base_funcs.h
FNF:0
FNH:0
DA:106,0
DA:151,0
DA:152,0
LF:3
LH:0
end_of_record
TN:
SF:/usr/include/c++/13/bits/stl_iterator_base_types.h
FNF:0
FNH:0
DA:240,0
LF:1
LH:0
end_of_record
TN:
SF:/usr/include/c++/13/bits/stl_list.h
FN:1022,1023,_ZNSt7__cxx114listIP10DataRecordSaIS2_EE5beginEv
FN:1022,1023,_ZNSt7__cxx114listIP14DataItemFormatSaIS2_EE5beginEv
FN:1022,1023,_ZNSt7__cxx114listIP19DataItemDescriptionSaIS2_EE5beginEv
FN:1022,1023,_ZNSt7__cxx114listIP3UAPSaIS2_EE5beginEv
FN:1022,1023,_ZNSt7__cxx114listIP7UAPItemSaIS2_EE5beginEv
FN:1022,1023,_ZNSt7__cxx114listIP8DataItemSaIS2_EE5beginEv
FN:1022,1023,_ZNSt7__cxx114listIP9BitsValueSaIS2_EE5beginEv
FN:1022,1023,_ZNSt7__cxx114listIP9DataBlockSaIS2_EE5beginEv
FN:1032,1033,_ZNKSt7__cxx114listIP9BitsValueSaIS2_EE5beginEv
FN:1042,1043,_ZNSt7__cxx114listIP10DataRecordSaIS2_EE3endEv
FN:1042,1043,_ZNSt7__cxx114listIP14DataItemFormatSaIS2_EE3endEv
FN:1042,1043,_ZNSt7__cxx114listIP19DataItemDescriptionSaIS2_EE3endEv
FN:1042,1043,_ZNSt7__cxx114listIP3UAPSaIS2_EE3endEv
FN:1042,1043,_ZNSt7__cxx114listIP7UAPItemSaIS2_EE3endEv
FN:1042,1043,_ZNSt7__cxx114listIP8DataItemSaIS2_EE3endEv
FN:1042,1043,_ZNSt7__cxx114listIP9BitsValueSaIS2_EE3endEv
FN:1042,1043,_ZNSt7__cxx114listIP9DataBlockSaIS2_EE3endEv
FN:1052,1053,_ZNKSt7__cxx114listIP14DataItemFormatSaIS2_EE3endEv
FN:1052,1053,_ZNKSt7__cxx114listIP9BitsValueSaIS2_EE3endEv
FN:110,111,_ZNSt8__detail17_List_node_headerC2Ev
FN:1143,1144,_ZNKSt7__cxx114listIP9BitsValueSaIS2_EE5emptyEv
FN:1149,1150,_ZNKSt7__cxx114listIP10DataRecordSaIS2_EE4sizeEv
FN:1149,1150,_ZNKSt7__cxx114listIP14DataItemFormatSaIS2_EE4sizeEv
FN:1149,1150,_ZNKSt7__cxx114listIP9BitsValueSaIS2_EE4sizeEv
FN:1205,1206,_ZNSt7__cxx114listIP14DataItemFormatSaIS2_EE5frontEv
FN:1305,1306,_ZNSt7__cxx114listIP10DataRecordSaIS2_EE9push_backERKS2_
FN:1305,1306,_ZNSt7__cxx114listIP14DataItemFormatSaIS2_EE9push_backERKS2_
FN:1305,1306,_ZNSt7__cxx114listIP19DataItemDescriptionSaIS2_EE9push_backERKS2_
FN:1305,1306,_ZNSt7__cxx114listIP3UAPSaIS2_EE9push_backERKS2_
FN:1305,1306,_ZNSt7__cxx114listIP7UAPItemSaIS2_EE9push_backERKS2_
FN:1305,1306,_ZNSt7__cxx114listIP8DataItemSaIS2_EE9push_backERKS2_
FN:1305,1306,_ZNSt7__cxx114listIP9BitsValueSaIS2_EE9push_backERKS2_
FN:1305,1306,_ZNSt7__cxx114listIP9DataBlockSaIS2_EE9push_backERKS2_
FN:1310,1311,_ZNSt7__cxx114listIP14DataItemFormatSaIS2_EE9push_backEOS2_
FN:1310,1311,_ZNSt7__cxx114listIP9BitsValueSaIS2_EE9push_backEOS2_
FN:150,156,_ZNSt8__detail17_List_node_header7_M_initEv
FN:2003,2008,_ZNSt7__cxx114listIP10DataRecordSaIS2_EE9_M_insertIJRKS2_EEEvSt14_List_iteratorIS2_EDpOT_
FN:2003,2008,_ZNSt7__cxx114listIP14DataItemFormatSaIS2_EE9_M_insertIJRKS2_EEEvSt14_List_iteratorIS2_EDpOT_
FN:2003,2008,_ZNSt7__cxx114listIP14DataItemFormatSaIS2_EE9_M_insertIJS2_EEEvSt14_List_iteratorIS2_EDpOT_
FN:2003,2008,_ZNSt7__cxx114listIP19DataItemDescriptionSaIS2_EE9_M_insertIJRKS2_EEEvSt14_List_iteratorIS2_EDpOT_
FN:2003,2008,_ZNSt7__cxx114listIP3UAPSaIS2_EE9_M_insertIJRKS2_EEEvSt14_List_iteratorIS2_EDpOT_
FN:2003,2008,_ZNSt7__cxx114listIP7UAPItemSaIS2_EE9_M_insertIJRKS2_EEEvSt14_List_iteratorIS2_EDpOT_
FN:2003,2008,_ZNSt7__cxx114listIP8DataItemSaIS2_EE9_M_insertIJRKS2_EEEvSt14_List_iteratorIS2_EDpOT_
FN:2003,2008,_ZNSt7__cxx114listIP9BitsValueSaIS2_EE9_M_insertIJRKS2_EEEvSt14_List_iteratorIS2_EDpOT_
FN:2003,2008,_ZNSt7__cxx114listIP9BitsValueSaIS2_EE9_M_insertIJS2_EEEvSt14_List_iteratorIS2_EDpOT_
FN:2003,2008,_ZNSt7__cxx114listIP9DataBlockSaIS2_EE9_M_insertIJRKS2_EEEvSt14_List_iteratorIS2_EDpOT_
FN:2013,2025,_ZNSt7__cxx114listIP10DataRecordSaIS2_EE8_M_eraseESt14_List_iteratorIS2_E
FN:2013,2025,_ZNSt7__cxx114listIP14DataItemFormatSaIS2_EE8_M_eraseESt14_List_iteratorIS2_E
FN:2013,2025,_ZNSt7__cxx114listIP19DataItemDescriptionSaIS2_EE8_M_eraseESt14_List_iteratorIS2_E
FN:2013,2025,_ZNSt7__cxx114listIP3UAPSaIS2_EE8_M_eraseESt14_List_iteratorIS2_E
FN:2013,2025,_ZNSt7__cxx114listIP7UAPItemSaIS2_EE8_M_eraseESt14_List_iteratorIS2_E
FN:2013,2025,_ZNSt7__cxx114listIP8DataItemSaIS2_EE8_M_eraseESt14_List_iteratorIS2_E
FN:2013,2025,_ZNSt7__cxx114listIP9BitsValueSaIS2_EE8_M_eraseESt14_List_iteratorIS2_E
FN:2013,2025,_ZNSt7__cxx114listIP9DataBlockSaIS2_EE8_M_eraseESt14_List_iteratorIS2_E
FN:238,238,_ZNSt10_List_nodeIP10DataRecordE9_M_valptrEv
FN:238,238,_ZNSt10_List_nodeIP14DataItemFormatE9_M_valptrEv
FN:238,238,_ZNSt10_List_nodeIP19DataItemDescriptionE9_M_valptrEv
FN:238,238,_ZNSt10_List_nodeIP3UAPE9_M_valptrEv
FN:238,238,_ZNSt10_List_nodeIP7UAPItemE9_M_valptrEv
FN:238,238,_ZNSt10_List_nodeIP8DataItemE9_M_valptrEv
FN:238,238,_ZNSt10_List_nodeIP9BitsValueE9_M_valptrEv
FN:238,238,_ZNSt10_List_nodeIP9DataBlockE9_M_valptrEv
FN:239,239,_ZNKSt10_List_nodeIP9BitsValueE9_M_valptrEv
FN:264,265,_ZNSt14_List_iteratorIP10DataRecordEC2Ev
FN:264,265,_ZNSt14_List_iteratorIP14DataItemFormatEC2Ev
FN:264,265,_ZNSt14_List_iteratorIP19DataItemDescriptionEC2Ev
FN:264,265,_ZNSt14_List_iteratorIP3UAPEC2Ev
FN:264,265,_ZNSt14_List_iteratorIP7UAPItemEC2Ev
FN:264,265,_ZNSt14_List_iteratorIP8DataItemEC2Ev
FN:264,265,_ZNSt14_List_iteratorIP9BitsValueEC2Ev
FN:264,265,_ZNSt14_List_iteratorIP9DataBlockEC2Ev
FN:268,269,_ZNSt14_List_iteratorIP10DataRecordEC2EPNSt8__detail15_List_node_baseE
FN:268,269,_ZNSt14_List_iteratorIP14DataItemFormatEC2EPNSt8__detail15_List_node_baseE
FN:268,269,_ZNSt14_List_iteratorIP19DataItemDescriptionEC2EPNSt8__detail15_List_node_baseE
FN:268,269,_ZNSt14_List_iteratorIP3UAPEC2EPNSt8__detail15_List_node_baseE
FN:268,269,_ZNSt14_List_iteratorIP7UAPItemEC2EPNSt8__detail15_List_node_baseE
FN:268,269,_ZNSt14_List_iteratorIP8DataItemEC2EPNSt8__detail15_List_node_baseE
FN:268,269,_ZNSt14_List_iteratorIP9BitsValueEC2EPNSt8__detail15_List_node_baseE
FN:268,269,_ZNSt14_List_iteratorIP9DataBlockEC2EPNSt8__detail15_List_node_baseE
FN:278,279,_ZNKSt14_List_iteratorIP10DataRecordEdeEv
FN:278,279,_ZNKSt14_List_iteratorIP14DataItemFormatEdeEv
FN:278,279,_ZNKSt14_List_iteratorIP19DataItemDescriptionEdeEv
FN:278,279,_ZNKSt14_List_iteratorIP3UAPEdeEv
FN:278,279,_ZNKSt14_List_iteratorIP7UAPItemEdeEv
FN:278,279,_ZNKSt14_List_iteratorIP8DataItemEdeEv
FN:278,279,_ZNKSt14_List_iteratorIP9BitsValueEdeEv
FN:278,279,_ZNKSt14_List_iteratorIP9DataBlockEdeEv
FN:294,299,_ZNSt14_List_iteratorIP10DataRecordEppEi
FN:294,299,_ZNSt14_List_iteratorIP14DataItemFormatEppEi
FN:294,299,_ZNSt14_List_iteratorIP19DataItemDescriptionEppEi
FN:294,299,_ZNSt14_List_iteratorIP3UAPEppEi
FN:294,299,_ZNSt14_List_iteratorIP7UAPItemEppEi
FN:294,299,_ZNSt14_List_iteratorIP8DataItemEppEi
FN:294,299,_ZNSt14_List_iteratorIP9BitsValueEppEi
FN:294,299,_ZNSt14_List_iteratorIP9DataBlockEppEi
FN:318,319,_ZSteqRKSt14_List_iteratorIP14DataItemFormatES4_
FN:318,319,_ZSteqRKSt14_List_iteratorIP19DataItemDescriptionES4_
FN:318,319,_ZSteqRKSt14_List_iteratorIP9BitsValueES4_
FN:324,325,_ZStneRKSt14_List_iteratorIP10DataRecordES4_
FN:324,325,_ZStneRKSt14_List_iteratorIP14DataItemFormatES4_
FN:324,325,_ZStneRKSt14_List_iteratorIP19DataItemDescriptionES4_
FN:324,325,_ZStneRKSt14_List_iteratorIP3UAPES4_
FN:324,325,_ZStneRKSt14_List_iteratorIP7UAPItemES4_
FN:324,325,_ZStneRKSt14_List_iteratorIP8DataItemES4_
FN:324,325,_ZStneRKSt14_List_iteratorIP9BitsValueES4_
FN:324,325,_ZStneRKSt14_List_iteratorIP9DataBlockES4_
FN:354,356,_ZNSt20_List_const_iteratorIP14DataItemFormatEC2EPKNSt8__detail15_List_node_baseE
FN:354,356,_ZNSt20_List_const_iteratorIP9BitsValueEC2EPKNSt8__detail15_List_node_baseE
FN:358,359,_ZNSt20_List_const_iteratorIP10DataRecordEC2ERKSt14_List_iteratorIS1_E
FN:358,359,_ZNSt20_List_const_iteratorIP14DataItemFormatEC2ERKSt14_List_iteratorIS1_E
FN:358,359,_ZNSt20_List_const_iteratorIP19DataItemDescriptionEC2ERKSt14_List_iteratorIS1_E
FN:358,359,_ZNSt20_List_const_iteratorIP3UAPEC2ERKSt14_List_iteratorIS1_E
FN:358,359,_ZNSt20_List_const_iteratorIP7UAPItemEC2ERKSt14_List_iteratorIS1_E
FN:358,359,_ZNSt20_List_const_iteratorIP8DataItemEC2ERKSt14_List_iteratorIS1_E
FN:358,359,_ZNSt20_List_const_iteratorIP9BitsValueEC2ERKSt14_List_iteratorIS1_E
FN:358,359,_ZNSt20_List_const_iteratorIP9DataBlockEC2ERKSt14_List_iteratorIS1_E
FN:362,363,_ZNKSt20_List_const_iteratorIP10DataRecordE13_M_const_castEv
FN:362,363,_ZNKSt20_List_const_iteratorIP14DataItemFormatE13_M_const_castEv
FN:362,363,_ZNKSt20_List_const_iteratorIP19DataItemDescriptionE13_M_const_castEv
FN:362,363,_ZNKSt20_List_const_iteratorIP3UAPE13_M_const_castEv
FN:362,363,_ZNKSt20_List_const_iteratorIP7UAPItemE13_M_const_castEv
FN:362,363,_ZNKSt20_List_const_iteratorIP8DataItemE13_M_const_castEv
FN:362,363,_ZNKSt20_List_const_iteratorIP9BitsValueE13_M_const_castEv
FN:362,363,_ZNKSt20_List_const_iteratorIP9DataBlockE13_M_const_castEv
FN:368,369,_ZNKSt20_List_const_iteratorIP9BitsValueEdeEv
FN:384,389,_ZNSt20_List_const_iteratorIP9BitsValueEppEi
FN:414,415,_ZStneRKSt20_List_const_iteratorIP14DataItemFormatES4_
FN:414,415,_ZStneRKSt20_List_const_iteratorIP9BitsValueES4_
FN:455,458,_ZNSt7__cxx1110_List_baseIP10DataRecordSaIS2_EE10_List_implC2Ev
FN:455,458,_ZNSt7__cxx1110_List_baseIP14DataItemFormatSaIS2_EE10_List_implC2Ev
FN:455,458,_ZNSt7__cxx1110_List_baseIP19DataItemDescriptionSaIS2_EE10_List_implC2Ev
FN:455,458,_ZNSt7__cxx1110_List_baseIP3UAPSaIS2_EE10_List_implC2Ev
FN:455,458,_ZNSt7__cxx1110_List_baseIP7UAPItemSaIS2_EE10_List_implC2Ev
FN:455,458,_ZNSt7__cxx1110_List_baseIP8DataItemSaIS2_EE10_List_implC2Ev
FN:455,458,_ZNSt7__cxx1110_List_baseIP9BitsValueSaIS2_EE10_List_implC2Ev
FN:455,458,_ZNSt7__cxx1110_List_baseIP9DataBlockSaIS2_EE10_List_implC2Ev
FN:480,480,_ZNKSt7__cxx1110_List_baseIP10DataRecordSaIS2_EE11_M_get_sizeEv
FN:480,480,_ZNKSt7__cxx1110_List_baseIP14DataItemFormatSaIS2_EE11_M_get_sizeEv
FN:480,480,_ZNKSt7__cxx1110_List_baseIP9BitsValueSaIS2_EE11_M_get_sizeEv
FN:484,484,_ZNSt7__cxx1110_List_baseIP10DataRecordSaIS2_EE11_M_inc_sizeEm
FN:484,484,_ZNSt7__cxx1110_List_baseIP14DataItemFormatSaIS2_EE11_M_inc_sizeEm
FN:484,484,_ZNSt7__cxx1110_List_baseIP19DataItemDescriptionSaIS2_EE11_M_inc_sizeEm
FN:484,484,_ZNSt7__cxx1110_List_baseIP3UAPSaIS2_EE11_M_inc_sizeEm
FN:484,484,_ZNSt7__cxx1110_List_baseIP7UAPItemSaIS2_EE11_M_inc_sizeEm
FN:484,484,_ZNSt7__cxx1110_List_baseIP8DataItemSaIS2_EE11_M_inc_sizeEm
FN:484,484,_ZNSt7__cxx1110_List_baseIP9BitsValueSaIS2_EE11_M_inc_sizeEm
FN:484,484,_ZNSt7__cxx1110_List_baseIP9DataBlockSaIS2_EE11_M_inc_sizeEm
FN:486,486,_ZNSt7__cxx1110_List_baseIP10DataRecordSaIS2_EE11_M_dec_sizeEm
FN:486,486,_ZNSt7__cxx1110_List_baseIP14DataItemFormatSaIS2_EE11_M_dec_sizeEm
FN:486,486,_ZNSt7__cxx1110_List_baseIP19DataItemDescriptionSaIS2_EE11_M_dec_sizeEm
FN:486,486,_ZNSt7__cxx1110_List_baseIP3UAPSaIS2_EE11_M_dec_sizeEm
FN:486,486,_ZNSt7__cxx1110_List_baseIP7UAPItemSaIS2_EE11_M_dec_sizeEm
FN:486,486,_ZNSt7__cxx1110_List_baseIP8DataItemSaIS2_EE11_M_dec_sizeEm
FN:486,486,_ZNSt7__cxx1110_List_baseIP9BitsValueSaIS2_EE11_M_dec_sizeEm
FN:486,486,_ZNSt7__cxx1110_List_baseIP9DataBlockSaIS2_EE11_M_dec_sizeEm
FN:517,518,_ZNSt7__cxx1110_List_baseIP10DataRecordSaIS2_EE11_M_get_nodeEv
FN:517,518,_ZNSt7__cxx1110_List_baseIP14DataItemFormatSaIS2_EE11_M_get_nodeEv
FN:517,518,_ZNSt7__cxx1110_List_baseIP19DataItemDescriptionSaIS2_EE11_M_get_nodeEv
FN:517,518,_ZNSt7__cxx1110_List_baseIP3UAPSaIS2_EE11_M_get_nodeEv
FN:517,518,_ZNSt7__cxx1110_List_baseIP7UAPItemSaIS2_EE11_M_get_nodeEv
FN:517,518,_ZNSt7__cxx1110_List_baseIP8DataItemSaIS2_EE11_M_get_nodeEv
FN:517,518,_ZNSt7__cxx1110_List_baseIP9BitsValueSaIS2_EE11_M_get_nodeEv
FN:517,518,_ZNSt7__cxx1110_List_baseIP9DataBlockSaIS2_EE11_M_get_nodeEv
FN:521,522,_ZNSt7__cxx1110_List_baseIP10DataRecordSaIS2_EE11_M_put_nodeEPSt10_List_nodeIS2_E
FN:521,522,_ZNSt7__cxx1110_List_baseIP14DataItemFormatSaIS2_EE11_M_put_nodeEPSt10_List_nodeIS2_E
FN:521,522,_ZNSt7__cxx1110_List_baseIP19DataItemDescriptionSaIS2_EE11_M_put_nodeEPSt10_List_nodeIS2_E
FN:521,522,_ZNSt7__cxx1110_List_baseIP3UAPSaIS2_EE11_M_put_nodeEPSt10_List_nodeIS2_E
FN:521,522,_ZNSt7__cxx1110_List_baseIP7UAPItemSaIS2_EE11_M_put_nodeEPSt10_List_nodeIS2_E
FN:521,522,_ZNSt7__cxx1110_List_baseIP8DataItemSaIS2_EE11_M_put_nodeEPSt10_List_nodeIS2_E
FN:521,522,_ZNSt7__cxx1110_List_baseIP9BitsValueSaIS2_EE11_M_put_nodeEPSt10_List_nodeIS2_E
FN:521,522,_ZNSt7__cxx1110_List_baseIP9DataBlockSaIS2_EE11_M_put_nodeEPSt10_List_nodeIS2_E
FN:528,529,_ZNSt7__cxx1110_List_baseIP10DataRecordSaIS2_EE21_M_get_Node_allocatorEv
FN:528,529,_ZNSt7__cxx1110_List_baseIP14DataItemFormatSaIS2_EE21_M_get_Node_allocatorEv
FN:528,529,_ZNSt7__cxx1110_List_baseIP19DataItemDescriptionSaIS2_EE21_M_get_Node_allocatorEv
FN:528,529,_ZNSt7__cxx1110_List_baseIP3UAPSaIS2_EE21_M_get_Node_allocatorEv
FN:528,529,_ZNSt7__cxx1110_List_baseIP7UAPItemSaIS2_EE21_M_get_Node_allocatorEv
FN:528,529,_ZNSt7__cxx1110_List_baseIP8DataItemSaIS2_EE21_M_get_Node_allocatorEv
FN:528,529,_ZNSt7__cxx1110_List_baseIP9BitsValueSaIS2_EE21_M_get_Node_allocatorEv
FN:528,529,_ZNSt7__cxx1110_List_baseIP9DataBlockSaIS2_EE21_M_get_Node_allocatorEv
FN:536,536,_ZNSt7__cxx1110_List_baseIP10DataRecordSaIS2_EEC2Ev
FN:536,536,_ZNSt7__cxx1110_List_baseIP14DataItemFormatSaIS2_EEC2Ev
FN:536,536,_ZNSt7__cxx1110_List_baseIP19DataItemDescriptionSaIS2_EEC2Ev
FN:536,536,_ZNSt7__cxx1110_List_baseIP3UAPSaIS2_EEC2Ev
FN:536,536,_ZNSt7__cxx1110_List_baseIP7UAPItemSaIS2_EEC2Ev
FN:536,536,_ZNSt7__cxx1110_List_baseIP8DataItemSaIS2_EEC2Ev
FN:536,536,_ZNSt7__cxx1110_List_baseIP9BitsValueSaIS2_EEC2Ev
FN:536,536,_ZNSt7__cxx1110_List_baseIP9DataBlockSaIS2_EEC2Ev
FN:574,575,_ZNSt7__cxx1110_List_baseIP10DataRecordSaIS2_EED2Ev
FN:574,575,_ZNSt7__cxx1110_List_baseIP14DataItemFormatSaIS2_EED2Ev
FN:574,575,_ZNSt7__cxx1110_List_baseIP19DataItemDescriptionSaIS2_EED2Ev
FN:574,575,_ZNSt7__cxx1110_List_baseIP3UAPSaIS2_EED2Ev
FN:574,575,_ZNSt7__cxx1110_List_baseIP7UAPItemSaIS2_EED2Ev
FN:574,575,_ZNSt7__cxx1110_List_baseIP8DataItemSaIS2_EED2Ev
FN:574,575,_ZNSt7__cxx1110_List_baseIP9BitsValueSaIS2_EED2Ev
FN:574,575,_ZNSt7__cxx1110_List_baseIP9DataBlockSaIS2_EED2Ev
FN:708,717,_ZNSt7__cxx114listIP10DataRecordSaIS2_EE14_M_create_nodeIJRKS2_EEEPSt10_List_nodeIS2_EDpOT_
FN:708,717,_ZNSt7__cxx114listIP14DataItemFormatSaIS2_EE14_M_create_nodeIJRKS2_EEEPSt10_List_nodeIS2_EDpOT_
FN:708,717,_ZNSt7__cxx114listIP14DataItemFormatSaIS2_EE14_M_create_nodeIJS2_EEEPSt10_List_nodeIS2_EDpOT_
FN:708,717,_ZNSt7__cxx114listIP19DataItemDescriptionSaIS2_EE14_M_create_nodeIJRKS2_EEEPSt10_List_nodeIS2_EDpOT_
FN:708,717,_ZNSt7__cxx114listIP3UAPSaIS2_EE14_M_create_nodeIJRKS2_EEEPSt10_List_nodeIS2_EDpOT_
FN:708,717,_ZNSt7__cxx114listIP7UAPItemSaIS2_EE14_M_create_nodeIJRKS2_EEEPSt10_List_nodeIS2_EDpOT_
FN:708,717,_ZNSt7__cxx114listIP8DataItemSaIS2_EE14_M_create_nodeIJRKS2_EEEPSt10_List_nodeIS2_EDpOT_
FN:708,717,_ZNSt7__cxx114listIP9BitsValueSaIS2_EE14_M_create_nodeIJRKS2_EEEPSt10_List_nodeIS2_EDpOT_
FN:708,717,_ZNSt7__cxx114listIP9BitsValueSaIS2_EE14_M_create_nodeIJS2_EEEPSt10_List_nodeIS2_EDpOT_
FN:708,717,_ZNSt7__cxx114listIP9DataBlockSaIS2_EE14_M_create_nodeIJRKS2_EEEPSt10_List_nodeIS2_EDpOT_
FN:727,728,_ZNKSt7__cxx114listIP10DataRecordSaIS2_EE13_M_node_countEv
FN:727,728,_ZNKSt7__cxx114listIP14DataItemFormatSaIS2_EE13_M_node_countEv
FN:727,728,_ZNKSt7__cxx114listIP9BitsValueSaIS2_EE13_M_node_countEv
FN:749,749,_ZNSt7__cxx114listIP10DataRecordSaIS2_EEC2Ev
FN:749,749,_ZNSt7__cxx114listIP14DataItemFormatSaIS2_EEC2Ev
FN:749,749,_ZNSt7__cxx114listIP19DataItemDescriptionSaIS2_EEC2Ev
FN:749,749,_ZNSt7__cxx114listIP3UAPSaIS2_EEC2Ev
FN:749,749,_ZNSt7__cxx114listIP7UAPItemSaIS2_EEC2Ev
FN:749,749,_ZNSt7__cxx114listIP8DataItemSaIS2_EEC2Ev
FN:749,749,_ZNSt7__cxx114listIP9BitsValueSaIS2_EEC2Ev
FN:749,749,_ZNSt7__cxx114listIP9DataBlockSaIS2_EEC2Ev
FN:903,903,_ZNSt7__cxx114listIP10DataRecordSaIS2_EED2Ev
FN:903,903,_ZNSt7__cxx114listIP14DataItemFormatSaIS2_EED2Ev
FN:903,903,_ZNSt7__cxx114listIP19DataItemDescriptionSaIS2_EED2Ev
FN:903,903,_ZNSt7__cxx114listIP3UAPSaIS2_EED2Ev
FN:903,903,_ZNSt7__cxx114listIP7UAPItemSaIS2_EED2Ev
FN:903,903,_ZNSt7__cxx114listIP8DataItemSaIS2_EED2Ev
FN:903,903,_ZNSt7__cxx114listIP9BitsValueSaIS2_EED2Ev
FN:903,903,_ZNSt7__cxx114listIP9DataBlockSaIS2_EED2Ev
FNDA:0,_ZNSt7__cxx114listIP10DataRecordSaIS2_EE5beginEv
FNDA:254,_ZNSt7__cxx114listIP14DataItemFormatSaIS2_EE5beginEv
FNDA:0,_ZNSt7__cxx114listIP19DataItemDescriptionSaIS2_EE5beginEv
FNDA:0,_ZNSt7__cxx114listIP3UAPSaIS2_EE5beginEv
FNDA:0,_ZNSt7__cxx114listIP7UAPItemSaIS2_EE5beginEv
FNDA:0,_ZNSt7__cxx114listIP8DataItemSaIS2_EE5beginEv
FNDA:0,_ZNSt7__cxx114listIP9BitsValueSaIS2_EE5beginEv
FNDA:0,_ZNSt7__cxx114listIP9DataBlockSaIS2_EE5beginEv
FNDA:0,_ZNKSt7__cxx114listIP9BitsValueSaIS2_EE5beginEv
FNDA:0,_ZNSt7__cxx114listIP10DataRecordSaIS2_EE3endEv
FNDA:246,_ZNSt7__cxx114listIP14DataItemFormatSaIS2_EE3endEv
FNDA:0,_ZNSt7__cxx114listIP19DataItemDescriptionSaIS2_EE3endEv
FNDA:0,_ZNSt7__cxx114listIP3UAPSaIS2_EE3endEv
FNDA:0,_ZNSt7__cxx114listIP7UAPItemSaIS2_EE3endEv
FNDA:0,_ZNSt7__cxx114listIP8DataItemSaIS2_EE3endEv
FNDA:0,_ZNSt7__cxx114listIP9BitsValueSaIS2_EE3endEv
FNDA:0,_ZNSt7__cxx114listIP9DataBlockSaIS2_EE3endEv
FNDA:8,_ZNKSt7__cxx114listIP14DataItemFormatSaIS2_EE3endEv
FNDA:0,_ZNKSt7__cxx114listIP9BitsValueSaIS2_EE3endEv
FNDA:277,_ZNSt8__detail17_List_node_headerC2Ev
FNDA:0,_ZNKSt7__cxx114listIP9BitsValueSaIS2_EE5emptyEv
FNDA:0,_ZNKSt7__cxx114listIP10DataRecordSaIS2_EE4sizeEv
FNDA:0,_ZNKSt7__cxx114listIP14DataItemFormatSaIS2_EE4sizeEv
FNDA:0,_ZNKSt7__cxx114listIP9BitsValueSaIS2_EE4sizeEv
FNDA:0,_ZNSt7__cxx114listIP14DataItemFormatSaIS2_EE5frontEv
FNDA:0,_ZNSt7__cxx114listIP10DataRecordSaIS2_EE9push_backERKS2_
FNDA:0,_ZNSt7__cxx114listIP14DataItemFormatSaIS2_EE9push_backERKS2_
FNDA:0,_ZNSt7__cxx114listIP19DataItemDescriptionSaIS2_EE9push_backERKS2_
FNDA:0,_ZNSt7__cxx114listIP3UAPSaIS2_EE9push_backERKS2_
FNDA:95,_ZNSt7__cxx114listIP7UAPItemSaIS2_EE9push_backERKS2_
FNDA:0,_ZNSt7__cxx114listIP8DataItemSaIS2_EE9push_backERKS2_
FNDA:0,_ZNSt7__cxx114listIP9BitsValueSaIS2_EE9push_backERKS2_
FNDA:0,_ZNSt7__cxx114listIP9DataBlockSaIS2_EE9push_backERKS2_
FNDA:0,_ZNSt7__cxx114listIP14DataItemFormatSaIS2_EE9push_backEOS2_
FNDA:0,_ZNSt7__cxx114listIP9BitsValueSaIS2_EE9push_backEOS2_
FNDA:277,_ZNSt8__detail17_List_node_header7_M_initEv
FNDA:0,_ZNSt7__cxx114listIP10DataRecordSaIS2_EE9_M_insertIJRKS2_EEEvSt14_List_iteratorIS2_EDpOT_
FNDA:0,_ZNSt7__cxx114listIP14DataItemFormatSaIS2_EE9_M_insertIJRKS2_EEEvSt14_List_iteratorIS2_EDpOT_
FNDA:0,_ZNSt7__cxx114listIP14DataItemFormatSaIS2_EE9_M_insertIJS2_EEEvSt14_List_iteratorIS2_EDpOT_
FNDA:0,_ZNSt7__cxx114listIP19DataItemDescriptionSaIS2_EE9_M_insertIJRKS2_EEEvSt14_List_iteratorIS2_EDpOT_
FNDA:0,_ZNSt7__cxx114listIP3UAPSaIS2_EE9_M_insertIJRKS2_EEEvSt14_List_iteratorIS2_EDpOT_
FNDA:95,_ZNSt7__cxx114listIP7UAPItemSaIS2_EE9_M_insertIJRKS2_EEEvSt14_List_iteratorIS2_EDpOT_
FNDA:0,_ZNSt7__cxx114listIP8DataItemSaIS2_EE9_M_insertIJRKS2_EEEvSt14_List_iteratorIS2_EDpOT_
FNDA:0,_ZNSt7__cxx114listIP9BitsValueSaIS2_EE9_M_insertIJRKS2_EEEvSt14_List_iteratorIS2_EDpOT_
FNDA:0,_ZNSt7__cxx114listIP9BitsValueSaIS2_EE9_M_insertIJS2_EEEvSt14_List_iteratorIS2_EDpOT_
FNDA:0,_ZNSt7__cxx114listIP9DataBlockSaIS2_EE9_M_insertIJRKS2_EEEvSt14_List_iteratorIS2_EDpOT_
FNDA:0,_ZNSt7__cxx114listIP10DataRecordSaIS2_EE8_M_eraseESt14_List_iteratorIS2_E
FNDA:0,_ZNSt7__cxx114listIP14DataItemFormatSaIS2_EE8_M_eraseESt14_List_iteratorIS2_E
FNDA:0,_ZNSt7__cxx114listIP19DataItemDescriptionSaIS2_EE8_M_eraseESt14_List_iteratorIS2_E
FNDA:0,_ZNSt7__cxx114listIP3UAPSaIS2_EE8_M_eraseESt14_List_iteratorIS2_E
FNDA:95,_ZNSt7__cxx114listIP7UAPItemSaIS2_EE8_M_eraseESt14_List_iteratorIS2_E
FNDA:0,_ZNSt7__cxx114listIP8DataItemSaIS2_EE8_M_eraseESt14_List_iteratorIS2_E
FNDA:0,_ZNSt7__cxx114listIP9BitsValueSaIS2_EE8_M_eraseESt14_List_iteratorIS2_E
FNDA:0,_ZNSt7__cxx114listIP9DataBlockSaIS2_EE8_M_eraseESt14_List_iteratorIS2_E
FNDA:0,_ZNSt10_List_nodeIP10DataRecordE9_M_valptrEv
FNDA:0,_ZNSt10_List_nodeIP14DataItemFormatE9_M_valptrEv
FNDA:0,_ZNSt10_List_nodeIP19DataItemDescriptionE9_M_valptrEv
FNDA:0,_ZNSt10_List_nodeIP3UAPE9_M_valptrEv
FNDA:0,_ZNSt10_List_nodeIP7UAPItemE9_M_valptrEv
FNDA:0,_ZNSt10_List_nodeIP8DataItemE9_M_valptrEv
FNDA:0,_ZNSt10_List_nodeIP9BitsValueE9_M_valptrEv
FNDA:0,_ZNSt10_List_nodeIP9DataBlockE9_M_valptrEv
FNDA:0,_ZNKSt10_List_nodeIP9BitsValueE9_M_valptrEv
FNDA:0,_ZNSt14_List_iteratorIP10DataRecordEC2Ev
FNDA:0,_ZNSt14_List_iteratorIP14DataItemFormatEC2Ev
FNDA:0,_ZNSt14_List_iteratorIP19DataItemDescriptionEC2Ev
FNDA:0,_ZNSt14_List_iteratorIP3UAPEC2Ev
FNDA:55,_ZNSt14_List_iteratorIP7UAPItemEC2Ev
FNDA:0,_ZNSt14_List_iteratorIP8DataItemEC2Ev
FNDA:0,_ZNSt14_List_iteratorIP9BitsValueEC2Ev
FNDA:0,_ZNSt14_List_iteratorIP9DataBlockEC2Ev
FNDA:0,_ZNSt14_List_iteratorIP10DataRecordEC2EPNSt8__detail15_List_node_baseE
FNDA:500,_ZNSt14_List_iteratorIP14DataItemFormatEC2EPNSt8__detail15_List_node_baseE
FNDA:0,_ZNSt14_List_iteratorIP19DataItemDescriptionEC2EPNSt8__detail15_List_node_baseE
FNDA:0,_ZNSt14_List_iteratorIP3UAPEC2EPNSt8__detail15_List_node_baseE
FNDA:0,_ZNSt14_List_iteratorIP7UAPItemEC2EPNSt8__detail15_List_node_baseE
FNDA:0,_ZNSt14_List_iteratorIP8DataItemEC2EPNSt8__detail15_List_node_baseE
FNDA:0,_ZNSt14_List_iteratorIP9BitsValueEC2EPNSt8__detail15_List_node_baseE
FNDA:0,_ZNSt14_List_iteratorIP9DataBlockEC2EPNSt8__detail15_List_node_baseE
FNDA:0,_ZNKSt14_List_iteratorIP10DataRecordEdeEv
FNDA:0,_ZNKSt14_List_iteratorIP14DataItemFormatEdeEv
FNDA:0,_ZNKSt14_List_iteratorIP19DataItemDescriptionEdeEv
FNDA:0,_ZNKSt14_List_iteratorIP3UAPEdeEv
FNDA:0,_ZNKSt14_List_iteratorIP7UAPItemEdeEv
FNDA:0,_ZNKSt14_List_iteratorIP8DataItemEdeEv
FNDA:0,_ZNKSt14_List_iteratorIP9BitsValueEdeEv
FNDA:0,_ZNKSt14_List_iteratorIP9DataBlockEdeEv
FNDA:0,_ZNSt14_List_iteratorIP10DataRecordEppEi
FNDA:0,_ZNSt14_List_iteratorIP14DataItemFormatEppEi
FNDA:0,_ZNSt14_List_iteratorIP19DataItemDescriptionEppEi
FNDA:0,_ZNSt14_List_iteratorIP3UAPEppEi
FNDA:286,_ZNSt14_List_iteratorIP7UAPItemEppEi
FNDA:0,_ZNSt14_List_iteratorIP8DataItemEppEi
FNDA:0,_ZNSt14_List_iteratorIP9BitsValueEppEi
FNDA:0,_ZNSt14_List_iteratorIP9DataBlockEppEi
FNDA:0,_ZSteqRKSt14_List_iteratorIP14DataItemFormatES4_
FNDA:0,_ZSteqRKSt14_List_iteratorIP19DataItemDescriptionES4_
FNDA:0,_ZSteqRKSt14_List_iteratorIP9BitsValueES4_
FNDA:0,_ZStneRKSt14_List_iteratorIP10DataRecordES4_
FNDA:246,_ZStneRKSt14_List_iteratorIP14DataItemFormatES4_
FNDA:0,_ZStneRKSt14_List_iteratorIP19DataItemDescriptionES4_
FNDA:0,_ZStneRKSt14_List_iteratorIP3UAPES4_
FNDA:0,_ZStneRKSt14_List_iteratorIP7UAPItemES4_
FNDA:0,_ZStneRKSt14_List_iteratorIP8DataItemES4_
FNDA:0,_ZStneRKSt14_List_iteratorIP9BitsValueES4_
FNDA:0,_ZStneRKSt14_List_iteratorIP9DataBlockES4_
FNDA:8,_ZNSt20_List_const_iteratorIP14DataItemFormatEC2EPKNSt8__detail15_List_node_baseE
FNDA:0,_ZNSt20_List_const_iteratorIP9BitsValueEC2EPKNSt8__detail15_List_node_baseE
FNDA:0,_ZNSt20_List_const_iteratorIP10DataRecordEC2ERKSt14_List_iteratorIS1_E
FNDA:8,_ZNSt20_List_const_iteratorIP14DataItemFormatEC2ERKSt14_List_iteratorIS1_E
FNDA:0,_ZNSt20_List_const_iteratorIP19DataItemDescriptionEC2ERKSt14_List_iteratorIS1_E
FNDA:0,_ZNSt20_List_const_iteratorIP3UAPEC2ERKSt14_List_iteratorIS1_E
FNDA:95,_ZNSt20_List_const_iteratorIP7UAPItemEC2ERKSt14_List_iteratorIS1_E
FNDA:0,_ZNSt20_List_const_iteratorIP8DataItemEC2ERKSt14_List_iteratorIS1_E
FNDA:0,_ZNSt20_List_const_iteratorIP9BitsValueEC2ERKSt14_List_iteratorIS1_E
FNDA:0,_ZNSt20_List_const_iteratorIP9DataBlockEC2ERKSt14_List_iteratorIS1_E
FNDA:0,_ZNKSt20_List_const_iteratorIP10DataRecordE13_M_const_castEv
FNDA:0,_ZNKSt20_List_const_iteratorIP14DataItemFormatE13_M_const_castEv
FNDA:0,_ZNKSt20_List_const_iteratorIP19DataItemDescriptionE13_M_const_castEv
FNDA:0,_ZNKSt20_List_const_iteratorIP3UAPE13_M_const_castEv
FNDA:95,_ZNKSt20_List_const_iteratorIP7UAPItemE13_M_const_castEv
FNDA:0,_ZNKSt20_List_const_iteratorIP8DataItemE13_M_const_castEv
FNDA:0,_ZNKSt20_List_const_iteratorIP9BitsValueE13_M_const_castEv
FNDA:0,_ZNKSt20_List_const_iteratorIP9DataBlockE13_M_const_castEv
FNDA:0,_ZNKSt20_List_const_iteratorIP9BitsValueEdeEv
FNDA:0,_ZNSt20_List_const_iteratorIP9BitsValueEppEi
FNDA:8,_ZStneRKSt20_List_const_iteratorIP14DataItemFormatES4_
FNDA:0,_ZStneRKSt20_List_const_iteratorIP9BitsValueES4_
FNDA:0,_ZNSt7__cxx1110_List_baseIP10DataRecordSaIS2_EE10_List_implC2Ev
FNDA:246,_ZNSt7__cxx1110_List_baseIP14DataItemFormatSaIS2_EE10_List_implC2Ev
FNDA:0,_ZNSt7__cxx1110_List_baseIP19DataItemDescriptionSaIS2_EE10_List_implC2Ev
FNDA:0,_ZNSt7__cxx1110_List_baseIP3UAPSaIS2_EE10_List_implC2Ev
FNDA:31,_ZNSt7__cxx1110_List_baseIP7UAPItemSaIS2_EE10_List_implC2Ev
FNDA:0,_ZNSt7__cxx1110_List_baseIP8DataItemSaIS2_EE10_List_implC2Ev
FNDA:0,_ZNSt7__cxx1110_List_baseIP9BitsValueSaIS2_EE10_List_implC2Ev
FNDA:0,_ZNSt7__cxx1110_List_baseIP9DataBlockSaIS2_EE10_List_implC2Ev
FNDA:0,_ZNKSt7__cxx1110_List_baseIP10DataRecordSaIS2_EE11_M_get_sizeEv
FNDA:0,_ZNKSt7__cxx1110_List_baseIP14DataItemFormatSaIS2_EE11_M_get_sizeEv
FNDA:0,_ZNKSt7__cxx1110_List_baseIP9BitsValueSaIS2_EE11_M_get_sizeEv
FNDA:0,_ZNSt7__cxx1110_List_baseIP10DataRecordSaIS2_EE11_M_inc_sizeEm
FNDA:0,_ZNSt7__cxx1110_List_baseIP14DataItemFormatSaIS2_EE11_M_inc_sizeEm
FNDA:0,_ZNSt7__cxx1110_List_baseIP19DataItemDescriptionSaIS2_EE11_M_inc_sizeEm
FNDA:0,_ZNSt7__cxx1110_List_baseIP3UAPSaIS2_EE11_M_inc_sizeEm
FNDA:95,_ZNSt7__cxx1110_List_baseIP7UAPItemSaIS2_EE11_M_inc_sizeEm
FNDA:0,_ZNSt7__cxx1110_List_baseIP8DataItemSaIS2_EE11_M_inc_sizeEm
FNDA:0,_ZNSt7__cxx1110_List_baseIP9BitsValueSaIS2_EE11_M_inc_sizeEm
FNDA:0,_ZNSt7__cxx1110_List_baseIP9DataBlockSaIS2_EE11_M_inc_sizeEm
FNDA:0,_ZNSt7__cxx1110_List_baseIP10DataRecordSaIS2_EE11_M_dec_sizeEm
FNDA:0,_ZNSt7__cxx1110_List_baseIP14DataItemFormatSaIS2_EE11_M_dec_sizeEm
FNDA:0,_ZNSt7__cxx1110_List_baseIP19DataItemDescriptionSaIS2_EE11_M_dec_sizeEm
FNDA:0,_ZNSt7__cxx1110_List_baseIP3UAPSaIS2_EE11_M_dec_sizeEm
FNDA:95,_ZNSt7__cxx1110_List_baseIP7UAPItemSaIS2_EE11_M_dec_sizeEm
FNDA:0,_ZNSt7__cxx1110_List_baseIP8DataItemSaIS2_EE11_M_dec_sizeEm
FNDA:0,_ZNSt7__cxx1110_List_baseIP9BitsValueSaIS2_EE11_M_dec_sizeEm
FNDA:0,_ZNSt7__cxx1110_List_baseIP9DataBlockSaIS2_EE11_M_dec_sizeEm
FNDA:0,_ZNSt7__cxx1110_List_baseIP10DataRecordSaIS2_EE11_M_get_nodeEv
FNDA:0,_ZNSt7__cxx1110_List_baseIP14DataItemFormatSaIS2_EE11_M_get_nodeEv
FNDA:0,_ZNSt7__cxx1110_List_baseIP19DataItemDescriptionSaIS2_EE11_M_get_nodeEv
FNDA:0,_ZNSt7__cxx1110_List_baseIP3UAPSaIS2_EE11_M_get_nodeEv
FNDA:95,_ZNSt7__cxx1110_List_baseIP7UAPItemSaIS2_EE11_M_get_nodeEv
FNDA:0,_ZNSt7__cxx1110_List_baseIP8DataItemSaIS2_EE11_M_get_nodeEv
FNDA:0,_ZNSt7__cxx1110_List_baseIP9BitsValueSaIS2_EE11_M_get_nodeEv
FNDA:0,_ZNSt7__cxx1110_List_baseIP9DataBlockSaIS2_EE11_M_get_nodeEv
FNDA:0,_ZNSt7__cxx1110_List_baseIP10DataRecordSaIS2_EE11_M_put_nodeEPSt10_List_nodeIS2_E
FNDA:0,_ZNSt7__cxx1110_List_baseIP14DataItemFormatSaIS2_EE11_M_put_nodeEPSt10_List_nodeIS2_E
FNDA:0,_ZNSt7__cxx1110_List_baseIP19DataItemDescriptionSaIS2_EE11_M_put_nodeEPSt10_List_nodeIS2_E
FNDA:0,_ZNSt7__cxx1110_List_baseIP3UAPSaIS2_EE11_M_put_nodeEPSt10_List_nodeIS2_E
FNDA:95,_ZNSt7__cxx1110_List_baseIP7UAPItemSaIS2_EE11_M_put_nodeEPSt10_List_nodeIS2_E
FNDA:0,_ZNSt7__cxx1110_List_baseIP8DataItemSaIS2_EE11_M_put_nodeEPSt10_List_nodeIS2_E
FNDA:0,_ZNSt7__cxx1110_List_baseIP9BitsValueSaIS2_EE11_M_put_nodeEPSt10_List_nodeIS2_E
FNDA:0,_ZNSt7__cxx1110_List_baseIP9DataBlockSaIS2_EE11_M_put_nodeEPSt10_List_nodeIS2_E
FNDA:0,_ZNSt7__cxx1110_List_baseIP10DataRecordSaIS2_EE21_M_get_Node_allocatorEv
FNDA:0,_ZNSt7__cxx1110_List_baseIP14DataItemFormatSaIS2_EE21_M_get_Node_allocatorEv
FNDA:0,_ZNSt7__cxx1110_List_baseIP19DataItemDescriptionSaIS2_EE21_M_get_Node_allocatorEv
FNDA:0,_ZNSt7__cxx1110_List_baseIP3UAPSaIS2_EE21_M_get_Node_allocatorEv
FNDA:190,_ZNSt7__cxx1110_List_baseIP7UAPItemSaIS2_EE21_M_get_Node_allocatorEv
FNDA:0,_ZNSt7__cxx1110_List_baseIP8DataItemSaIS2_EE21_M_get_Node_allocatorEv
FNDA:0,_ZNSt7__cxx1110_List_baseIP9BitsValueSaIS2_EE21_M_get_Node_allocatorEv
FNDA:0,_ZNSt7__cxx1110_List_baseIP9DataBlockSaIS2_EE21_M_get_Node_allocatorEv
FNDA:0,_ZNSt7__cxx1110_List_baseIP10DataRecordSaIS2_EEC2Ev
FNDA:246,_ZNSt7__cxx1110_List_baseIP14DataItemFormatSaIS2_EEC2Ev
FNDA:0,_ZNSt7__cxx1110_List_baseIP19DataItemDescriptionSaIS2_EEC2Ev
FNDA:0,_ZNSt7__cxx1110_List_baseIP3UAPSaIS2_EEC2Ev
FNDA:31,_ZNSt7__cxx1110_List_baseIP7UAPItemSaIS2_EEC2Ev
FNDA:0,_ZNSt7__cxx1110_List_baseIP8DataItemSaIS2_EEC2Ev
FNDA:0,_ZNSt7__cxx1110_List_baseIP9BitsValueSaIS2_EEC2Ev
FNDA:0,_ZNSt7__cxx1110_List_baseIP9DataBlockSaIS2_EEC2Ev
FNDA:0,_ZNSt7__cxx1110_List_baseIP10DataRecordSaIS2_EED2Ev
FNDA:246,_ZNSt7__cxx1110_List_baseIP14DataItemFormatSaIS2_EED2Ev
FNDA:0,_ZNSt7__cxx1110_List_baseIP19DataItemDescriptionSaIS2_EED2Ev
FNDA:0,_ZNSt7__cxx1110_List_baseIP3UAPSaIS2_EED2Ev
FNDA:31,_ZNSt7__cxx1110_List_baseIP7UAPItemSaIS2_EED2Ev
FNDA:0,_ZNSt7__cxx1110_List_baseIP8DataItemSaIS2_EED2Ev
FNDA:0,_ZNSt7__cxx1110_List_baseIP9BitsValueSaIS2_EED2Ev
FNDA:0,_ZNSt7__cxx1110_List_baseIP9DataBlockSaIS2_EED2Ev
FNDA:0,_ZNSt7__cxx114listIP10DataRecordSaIS2_EE14_M_create_nodeIJRKS2_EEEPSt10_List_nodeIS2_EDpOT_
FNDA:0,_ZNSt7__cxx114listIP14DataItemFormatSaIS2_EE14_M_create_nodeIJRKS2_EEEPSt10_List_nodeIS2_EDpOT_
FNDA:0,_ZNSt7__cxx114listIP14DataItemFormatSaIS2_EE14_M_create_nodeIJS2_EEEPSt10_List_nodeIS2_EDpOT_
FNDA:0,_ZNSt7__cxx114listIP19DataItemDescriptionSaIS2_EE14_M_create_nodeIJRKS2_EEEPSt10_List_nodeIS2_EDpOT_
FNDA:0,_ZNSt7__cxx114listIP3UAPSaIS2_EE14_M_create_nodeIJRKS2_EEEPSt10_List_nodeIS2_EDpOT_
FNDA:95,_ZNSt7__cxx114listIP7UAPItemSaIS2_EE14_M_create_nodeIJRKS2_EEEPSt10_List_nodeIS2_EDpOT_
FNDA:0,_ZNSt7__cxx114listIP8DataItemSaIS2_EE14_M_create_nodeIJRKS2_EEEPSt10_List_nodeIS2_EDpOT_
FNDA:0,_ZNSt7__cxx114listIP9BitsValueSaIS2_EE14_M_create_nodeIJRKS2_EEEPSt10_List_nodeIS2_EDpOT_
FNDA:0,_ZNSt7__cxx114listIP9BitsValueSaIS2_EE14_M_create_nodeIJS2_EEEPSt10_List_nodeIS2_EDpOT_
FNDA:0,_ZNSt7__cxx114listIP9DataBlockSaIS2_EE14_M_create_nodeIJRKS2_EEEPSt10_List_nodeIS2_EDpOT_
FNDA:0,_ZNKSt7__cxx114listIP10DataRecordSaIS2_EE13_M_node_countEv
FNDA:0,_ZNKSt7__cxx114listIP14DataItemFormatSaIS2_EE13_M_node_countEv
FNDA:0,_ZNKSt7__cxx114listIP9BitsValueSaIS2_EE13_M_node_countEv
FNDA:0,_ZNSt7__cxx114listIP10DataRecordSaIS2_EEC2Ev
FNDA:246,_ZNSt7__cxx114listIP14DataItemFormatSaIS2_EEC2Ev
FNDA:0,_ZNSt7__cxx114listIP19DataItemDescriptionSaIS2_EEC2Ev
FNDA:0,_ZNSt7__cxx114listIP3UAPSaIS2_EEC2Ev
FNDA:31,_ZNSt7__cxx114listIP7UAPItemSaIS2_EEC2Ev
FNDA:0,_ZNSt7__cxx114listIP8DataItemSaIS2_EEC2Ev
FNDA:0,_ZNSt7__cxx114listIP9BitsValueSaIS2_EEC2Ev
FNDA:0,_ZNSt7__cxx114listIP9DataBlockSaIS2_EEC2Ev
FNDA:0,_ZNSt7__cxx114listIP10DataRecordSaIS2_EED2Ev
FNDA:246,_ZNSt7__cxx114listIP14DataItemFormatSaIS2_EED2Ev
FNDA:0,_ZNSt7__cxx114listIP19DataItemDescriptionSaIS2_EED2Ev
FNDA:0,_ZNSt7__cxx114listIP3UAPSaIS2_EED2Ev
FNDA:31,_ZNSt7__cxx114listIP7UAPItemSaIS2_EED2Ev
FNDA:0,_ZNSt7__cxx114listIP8DataItemSaIS2_EED2Ev
FNDA:0,_ZNSt7__cxx114listIP9BitsValueSaIS2_EED2Ev
FNDA:0,_ZNSt7__cxx114listIP9DataBlockSaIS2_EED2Ev
FNF:224
FNH:33
DA:110,277
DA:111,277
DA:150,277
DA:152,277
DA:154,277
DA:156,277
DA:238,0
DA:239,0
DA:264,55
DA:265,55
DA:268,500
DA:269,500
DA:278,0
DA:279,0
DA:294,286
DA:296,286
DA:297,286
DA:298,286
DA:318,0
DA:319,0
DA:324,246
DA:325,246
DA:354,8
DA:356,8
DA:358,103
DA:359,103
DA:362,95
DA:363,95
DA:368,0
DA:369,0
DA:384,0
DA:386,0
DA:387,0
DA:388,0
DA:414,8
DA:415,8
DA:455,277
DA:457,277
DA:458,277
DA:480,0
DA:484,95
DA:486,95
DA:517,95
DA:518,190
DA:521,95
DA:522,95
DA:528,190
DA:529,190
DA:536,277
DA:574,277
DA:575,277
DA:708,95
DA:710,95
DA:711,95
DA:712,95
DA:713,95
DA:715,95
DA:716,95
DA:717,95
DA:727,0
DA:728,0
DA:749,277
DA:903,277
DA:1022,254
DA:1023,254
DA:1032,0
DA:1033,0
DA:1042,246
DA:1043,246
DA:1052,8
DA:1053,8
DA:1143,0
DA:1144,0
DA:1149,0
DA:1150,0
DA:1205,0
DA:1206,0
DA:1305,95
DA:1306,95
DA:1310,0
DA:1311,0
DA:2003,95
DA:2005,95
DA:2006,95
DA:2007,95
DA:2008,95
DA:2013,95
DA:2015,95
DA:2016,95
DA:2017,95
DA:2019,95
DA:2024,95
DA:2025,95
LF:93
LH:68
end_of_record
TN:
SF:/usr/include/c++/13/ext/aligned_buffer.h
FN:64,65,_ZN9__gnu_cxx16__aligned_membufIP10DataRecordE7_M_addrEv
FN:64,65,_ZN9__gnu_cxx16__aligned_membufIP14DataItemFormatE7_M_addrEv
FN:64,65,_ZN9__gnu_cxx16__aligned_membufIP19DataItemDescriptionE7_M_addrEv
FN:64,65,_ZN9__gnu_cxx16__aligned_membufIP3UAPE7_M_addrEv
FN:64,65,_ZN9__gnu_cxx16__aligned_membufIP7UAPItemE7_M_addrEv
FN:64,65,_ZN9__gnu_cxx16__aligned_membufIP8DataItemE7_M_addrEv
FN:64,65,_ZN9__gnu_cxx16__aligned_membufIP9BitsValueE7_M_addrEv
FN:64,65,_ZN9__gnu_cxx16__aligned_membufIP9DataBlockE7_M_addrEv
FN:68,69,_ZNK9__gnu_cxx16__aligned_membufIP9BitsValueE7_M_addrEv
FN:72,73,_ZN9__gnu_cxx16__aligned_membufIP10DataRecordE6_M_ptrEv
FN:72,73,_ZN9__gnu_cxx16__aligned_membufIP14DataItemFormatE6_M_ptrEv
FN:72,73,_ZN9__gnu_cxx16__aligned_membufIP19DataItemDescriptionE6_M_ptrEv
FN:72,73,_ZN9__gnu_cxx16__aligned_membufIP3UAPE6_M_ptrEv
FN:72,73,_ZN9__gnu_cxx16__aligned_membufIP7UAPItemE6_M_ptrEv
FN:72,73,_ZN9__gnu_cxx16__aligned_membufIP8DataItemE6_M_ptrEv
FN:72,73,_ZN9__gnu_cxx16__aligned_membufIP9BitsValueE6_M_ptrEv
FN:72,73,_ZN9__gnu_cxx16__aligned_membufIP9DataBlockE6_M_ptrEv
FN:76,77,_ZNK9__gnu_cxx16__aligned_membufIP9BitsValueE6_M_ptrEv
FNDA:0,_ZN9__gnu_cxx16__aligned_membufIP10DataRecordE7_M_addrEv
FNDA:0,_ZN9__gnu_cxx16__aligned_membufIP14DataItemFormatE7_M_addrEv
FNDA:0,_ZN9__gnu_cxx16__aligned_membufIP19DataItemDescriptionE7_M_addrEv
FNDA:0,_ZN9__gnu_cxx16__aligned_membufIP3UAPE7_M_addrEv
FNDA:0,_ZN9__gnu_cxx16__aligned_membufIP7UAPItemE7_M_addrEv
FNDA:0,_ZN9__gnu_cxx16__aligned_membufIP8DataItemE7_M_addrEv
FNDA:0,_ZN9__gnu_cxx16__aligned_membufIP9BitsValueE7_M_addrEv
FNDA:0,_ZN9__gnu_cxx16__aligned_membufIP9DataBlockE7_M_addrEv
FNDA:0,_ZNK9__gnu_cxx16__aligned_membufIP9BitsValueE7_M_addrEv
FNDA:0,_ZN9__gnu_cxx16__aligned_membufIP10DataRecordE6_M_ptrEv
FNDA:0,_ZN9__gnu_cxx16__aligned_membufIP14DataItemFormatE6_M_ptrEv
FNDA:0,_ZN9__gnu_cxx16__aligned_membufIP19DataItemDescriptionE6_M_ptrEv
FNDA:0,_ZN9__gnu_cxx16__aligned_membufIP3UAPE6_M_ptrEv
FNDA:0,_ZN9__gnu_cxx16__aligned_membufIP7UAPItemE6_M_ptrEv
FNDA:0,_ZN9__gnu_cxx16__aligned_membufIP8DataItemE6_M_ptrEv
FNDA:0,_ZN9__gnu_cxx16__aligned_membufIP9BitsValueE6_M_ptrEv
FNDA:0,_ZN9__gnu_cxx16__aligned_membufIP9DataBlockE6_M_ptrEv
FNDA:0,_ZNK9__gnu_cxx16__aligned_membufIP9BitsValueE6_M_ptrEv
FNF:18
FNH:0
DA:64,0
DA:65,0
DA:68,0
DA:69,0
DA:72,0
DA:73,0
DA:76,0
DA:77,0
LF:8
LH:0
end_of_record
TN:
SF:/usr/include/c++/13/ext/alloc_traits.h
FNF:0
FNH:0
DA:98,408
LF:1
LH:1
end_of_record
TN:
SF:/usr/include/c++/13/new
FN:174,175,_ZnwmPv
FNDA:817,_ZnwmPv
FNF:1
FNH:1
DA:174,817
DA:175,817
LF:2
LH:2
end_of_record
TN:
SF:/usr/include/x86_64-linux-gnu/c++/13/bits/c++config.h
FN:540,551,_ZSt23__is_constant_evaluatedv
FNDA:0,_ZSt23__is_constant_evaluatedv
FNF:1
FNH:0
DA:540,0
DA:547,0
LF:2
LH:0
end_of_record
